                        00001 	; CVBasic compiler v0.9.0 Aug/25/2025
                        00002 	; Command: ./cvbasic --nes examples/bank_nes.bas bank.asm 
                        00003 	; Created: Tue Aug 26 14:39:32 2025
                        00004 
                        00005 COLECO:	EQU 0
                        00006 SG1000:	EQU 0
                        00007 MSX:	EQU 0
                        00008 SGM:	EQU 0
                        00009 SVI:	EQU 0
                        00010 SORD:	EQU 0
                        00011 MEMOTECH:	EQU 0
                        00012 EINSTEIN:	EQU 0
                        00013 CPM:	EQU 0
                        00014 PENCIL:	EQU 0
                        00015 PV2000:	EQU 0
                        00016 TI99:	EQU 0
                        00017 NABU:	EQU 0
                        00018 SMS:	EQU 0
                        00019 NES_PRG_BANKS:	EQU 16	; Each one 16K.
                        00020 NES_CHR_BANKS:	EQU 1	; Each one 4K.
                        00021 NES_NAMETABLE:	EQU 0
                        00022 
                        00023 CVBASIC_MUSIC_PLAYER:	EQU 1
                        00024 CVBASIC_COMPRESSION:	EQU 0
                        00025 CVBASIC_BANK_SWITCHING:	EQU 1
                        00026 CVBASIC_BANK_ROM_SIZE:	EQU 256
                        00027 
                        00028 BASE_RAM:	EQU $0050	; Base of RAM
                        00029 RAM_SIZE:	EQU $0800	; Base of RAM
                        00030 STACK:	EQU $01FF	; Base stack pointer
                        00031 VDP:	EQU $00	; VDP port (write)
                        00032 VDPR:	EQU $00	; VDP port (read)
                        00033 PSG:	EQU $00	; PSG port (write)
                        00034 
                        00035 	FORG $00000
                        00036 	;
                        00037 	; CVBasic prologue (BASIC compiler, 6502 target)
                        00038 	;
                        00039 	; by Oscar Toledo G.
                        00040 	; https://nanochess.org/
                        00041 	;
                        00042 	; Creation date: May/13/2025.
                        00043 	; Revision date: Jul/20/2025. Added code to load sprites and read controllers.
                        00044 	; Revision date: Aug/23/2025. Support for writing VRAM and PRINT.
                        00045 	; Revision date: Aug/24/2025. Support for scrolling, SCREEN, and DISABLE/ENABLE.
                        00046 	;                             Added music player.
                        00047 	; Revision date: Aug/25/2025. Added support for 256K and 512K ROM.
                        00048 	; Revision date: Aug/26/2025. Added support for CHRRAM selection.
                        00049 	;
                        00050 
                        00051 	CPU 6502
                        00052 
                        00053 	;
                        00054 	; Platforms supported:
                        00055 	; o NES/Famicom
                        00056 	;
                        00057 
                        00058 	;
                        00059 	; CVBasic variables in zero page.
                        00060 	;
                        00061 
                        00062 PPU_SOURCE:	EQU $00	; Used in NMI for source address for PPU copy
                        00063 	; This is a block of 8 bytes that should stay together.
                        00064 TEMP:		EQU $02
                        00065 TEMP2:		EQU $04
                        00066 RESULT:		EQU $06
                        00067 POINTER:	EQU $08
                        00068 
                        00069 READ_POINTER:	EQU $0A
                        00070 CURSOR:		EQU $0C
                        00071 MODE:           EQU $0E
                        00072 NTSC:		EQU $0F
                        00073 
                        00074 VDP_STATUS:	EQU $10
                        00075 FLICKER:	EQU $11
                        00076 FRAME:		EQU $12
                        00077 PPU_POINTER:	EQU $14
                        00078 PPU_TEMP:	EQU $15	; Used in NMI to save X
                        00079 PPU_CTRL:	EQU $16
                        00080 PPU_MASK:	EQU $17
                        00081 SCROLL_X:	EQU $18
                        00082 SCROLL_Y:	EQU $1A
                        00083 CHRRAM_BANK:	EQU $1C
                        00084 CONT_BITS:	EQU $1D
                        00085 LFSR:		EQU $1E
                        00086 
                        00087 JOY1_DATA:	EQU $20
                        00088 JOY2_DATA:	EQU $21
                        00089 KEY1_DATA:	EQU $22
                        00090 KEY2_DATA:	EQU $23
                        00091 SPRITE_DATA:	EQU $24
                        00092 
                        00093 	IF CVBASIC_MUSIC_PLAYER
                        00094 MUSIC_PLAYING:		EQU $4F
                        00095 MUSIC_BANK:             EQU $30
                        00096 MUSIC_TIMING:		EQU $31
                        00097 MUSIC_START:		EQU $32
                        00098 MUSIC_POINTER:		EQU $34
                        00099 MUSIC_NOTE_COUNTER:	EQU $36
                        00100 MUSIC_INSTRUMENT_1:	EQU $37
                        00101 MUSIC_NOTE_1:		EQU $38
                        00102 MUSIC_COUNTER_1:	EQU $39
                        00103 MUSIC_INSTRUMENT_2:	EQU $3A
                        00104 MUSIC_NOTE_2:		EQU $3B
                        00105 MUSIC_COUNTER_2:	EQU $3C
                        00106 MUSIC_INSTRUMENT_3:	EQU $3D
                        00107 MUSIC_NOTE_3:		EQU $3E
                        00108 MUSIC_COUNTER_3:	EQU $3F
                        00109 MUSIC_DRUM:		EQU $40
                        00110 MUSIC_COUNTER_4:	EQU $41
                        00111 AUDIO_FREQ1:		EQU $42
                        00112 AUDIO_FREQ2:		EQU $44
                        00113 AUDIO_FREQ3:		EQU $46
                        00114 AUDIO_VOL1:		EQU $48
                        00115 AUDIO_VOL2:		EQU $49
                        00116 AUDIO_VOL3:		EQU $4A
                        00117 AUDIO_VOL4HW:		EQU $4B
                        00118 AUDIO_NOISE:		EQU $4C
                        00119 MUSIC_TICK:		EQU $4D
                        00120 MUSIC_MODE:		EQU $4E
                        00121 	ENDIF
                        00122 
                        00123 SPRITE_PAGE:	EQU $02
                        00124 PPUBUF:		EQU $0100
                        00125 BANKSEL:	EQU $C000
                        00126 
                        00127 	FORG $0000
                        00128 	; The ORG address doesn't matter here
                        00129 	; iNES cartridge header
0000  4E45531A          00130 	DB "NES",$1A
0004  10                00131 	DB NES_PRG_BANKS
0005                    00132     IF CVBASIC_BANK_SWITCHING
0005  00                00133 	DB 0	; It has CHRRAM
0006  E2                00134 	DB $E2|NES_NAMETABLE	; Cartridge type LSB
0007  10                00135 	DB $10	; Cartridge type MSB
0008  00                00136 	DB $00	; Number of 8K RAM pages.
0009                    00137     ELSE
0009                    00138 	DB NES_CHR_BANKS
0009                    00139 	DB $00|NES_NAMETABLE	; Cartridge type LSB
0009                    00140 	DB $00	; Cartridge type MSB
0009                    00141 	DB $00	; Number of 8K RAM pages.
0009                    00142     ENDIF
0009  00000000000000    00143 	DB $00,$00,$00,$00,$00,$00,$00	; Reserved
0010                    00144 
0010                    00145     IF CVBASIC_BANK_SWITCHING
0010                    00146         IF CVBASIC_BANK_ROM_SIZE-512
                        00147 		FORG $3C010
C000                    00148 		ORG $C000
C000                    00149         ELSE
C000                    00150 		FORG $7C010
C000                    00151 		ORG $C000
C000                    00152         ENDIF
C000                    00153     ELSE
C000                    00154 	FORG $0010
C000                    00155 	ORG $8000
C000                    00156     ENDIF
C000                    00157 	
C000                    00158 PPUCTRL:	EQU $2000
C000                    00159 PPUMASK:	EQU $2001
C000                    00160 PPUSTATUS:	EQU $2002
C000                    00161 OAMADDR:	EQU $2003
C000                    00162 PPUSCROLL:	EQU $2005
C000                    00163 PPUADDR:	EQU $2006
C000                    00164 PPUDATA:	EQU $2007
C000                    00165 SPRRAM:		EQU $4014
C000                    00166 CONT1:		EQU $4016
C000                    00167 CONT2:		EQU $4017
C000                    00168 
C000                    00169 	;
C000                    00170 	; NES architecture prevents direct access to VRAM except
C000                    00171 	; during the VBLANK.
C000                    00172 	;
C000                    00173 WRTVRM:
C000  48                00174 	PHA
C001  8A                00175 	TXA
C002  A614              00176 	LDX PPU_POINTER
C004  9D0201            00177 	STA PPUBUF+2,X
C007  68                00178 	PLA
C008  9D0001            00179 	STA PPUBUF,X
C00B  98                00180 	TYA
C00C  0940              00181 	ORA #$40
C00E  9D0101            00182 	STA PPUBUF+1,X
C011  E8                00183 	INX
C012  E8                00184 	INX
C013  E8                00185 	INX
C014  8614              00186 	STX PPU_POINTER
C016  E040              00187 	CPX #$40
C018  B001              00188 	BCS .1
C01A  60                00189 	RTS
C01B                    00190 .1:
C01B  4C63C4            00191 	JMP WAIT
C01E                    00192 
C01E                    00193 LDIRVM4:
C01E  202BC0            00194 	JSR LDIRVM2
C021  202BC0            00195 	JSR LDIRVM2
C024  202BC0            00196 	JSR LDIRVM2
C027  202BC0            00197 	JSR LDIRVM2
C02A  60                00198 	RTS
C02B                    00199 
C02B                    00200 LDIRVM2:
C02B  203AC0            00201 	JSR LDIRVM
C02E  A508              00202 	LDA POINTER
C030  18                00203 	CLC
C031  6504              00204 	ADC TEMP2
C033  8508              00205 	STA POINTER
C035  9002              00206 	BCC .1
C037  E609              00207 	INC POINTER+1
C039                    00208 .1:
C039  60                00209 	RTS
C03A                    00210 
C03A                    00211 LDIRVM:
C03A  A614              00212 	LDX PPU_POINTER
C03C  A508              00213 	LDA POINTER
C03E  9D0001            00214 	STA PPUBUF,X
C041  A509              00215 	LDA POINTER+1
C043  9D0101            00216 	STA PPUBUF+1,X
C046  A900              00217 	LDA #0
C048  38                00218 	SEC
C049  E504              00219 	SBC TEMP2
C04B  9D0201            00220 	STA PPUBUF+2,X
C04E  A502              00221 	LDA TEMP
C050  38                00222 	SEC
C051  FD0201            00223 	SBC PPUBUF+2,X
C054  9D0301            00224 	STA PPUBUF+3,X
C057  A503              00225 	LDA TEMP+1
C059  E900              00226 	SBC #0
C05B  9D0401            00227 	STA PPUBUF+4,X
C05E  8A                00228 	TXA
C05F  18                00229 	CLC
C060  6905              00230 	ADC #5
C062  8514              00231 	STA PPU_POINTER
C064  C940              00232 	CMP #$40
C066  B001              00233 	BCS .1
C068  60                00234 	RTS
C069                    00235 .1:
C069  4C63C4            00236 	JMP WAIT
C06C                    00237 
C06C                    00238 ENASCR:
C06C  A517              00239 	LDA PPU_MASK
C06E  0918              00240 	ORA #$18
C070  8517              00241 	STA PPU_MASK
C072  60                00242 	RTS
C073                    00243 
C073                    00244 DISSCR:
C073  A517              00245 	LDA PPU_MASK
C075  29E7              00246 	AND #$E7
C077  8517              00247 	STA PPU_MASK
C079  60                00248 	RTS
C07A                    00249 
C07A                    00250 CPYBLK:
C07A                    00251 .1:	
C07A  A504              00252 	LDA TEMP2
C07C  48                00253 	PHA
C07D  A505              00254 	LDA TEMP2+1
C07F  48                00255 	PHA
C080  8A                00256 	TXA
C081  48                00257 	PHA
C082  98                00258 	TYA
C083  48                00259 	PHA
C084  A502              00260 	LDA TEMP
C086  48                00261 	PHA
C087  A503              00262 	LDA TEMP+1
C089  48                00263 	PHA
C08A  A900              00264 	LDA #0
C08C  8505              00265 	STA TEMP2+1
C08E  203AC0            00266 	JSR LDIRVM
C091  68                00267 	PLA
C092  8503              00268 	STA TEMP+1
C094  68                00269 	PLA
C095  8502              00270 	STA TEMP
C097  68                00271 	PLA
C098  8505              00272 	STA TEMP2+1
C09A  68                00273 	PLA
C09B  8504              00274 	STA TEMP2
C09D  A502              00275 	LDA TEMP
C09F  18                00276 	CLC
C0A0  6504              00277 	ADC TEMP2
C0A2  8502              00278 	STA TEMP
C0A4  A503              00279 	LDA TEMP+1
C0A6  6505              00280 	ADC TEMP2+1
C0A8  8503              00281 	STA TEMP+1
C0AA  A604              00282 	LDX TEMP2
C0AC  A405              00283 	LDY TEMP2+1
C0AE  68                00284 	PLA
C0AF  8505              00285 	STA TEMP2+1
C0B1  68                00286 	PLA
C0B2  8504              00287 	STA TEMP2
C0B4  A508              00288 	LDA POINTER
C0B6  18                00289 	CLC
C0B7  6920              00290 	ADC #$20	; !!! Variation for scrolling
C0B9  8508              00291 	STA POINTER
C0BB  A509              00292 	LDA POINTER+1
C0BD  6900              00293 	ADC #$00
C0BF  8509              00294 	STA POINTER+1
C0C1  C605              00295 	DEC TEMP2+1
C0C3  D0B5              00296 	BNE .1
C0C5  60                00297 	RTS
C0C6                    00298 
C0C6                    00299 CLS:
C0C6  A980              00300 	LDA #$80
C0C8                    00301 .1:
C0C8  48                00302 	PHA
C0C9  A614              00303 	LDX PPU_POINTER
C0CB  C98F              00304 	CMP #$8F
C0CD  D004              00305 	BNE .2
C0CF  A900              00306 	LDA #$00
C0D1  F002              00307 	BEQ .3
C0D3                    00308 
C0D3  A920              00309 .2:	LDA #$20
C0D5  9D0301            00310 .3:	STA PPUBUF+3,X
C0D8  A940              00311 	LDA #$40
C0DA  9D0201            00312 	STA PPUBUF+2,X
C0DD  A900              00313 	LDA #$00
C0DF  9D0001            00314 	STA PPUBUF,X
C0E2  68                00315 	PLA
C0E3  9D0101            00316 	STA PPUBUF+1,X
C0E6  48                00317 	PHA
C0E7  18                00318 	CLC
C0E8  7E0101            00319 	ROR PPUBUF+1,X
C0EB  7E0001            00320 	ROR PPUBUF,X
C0EE  38                00321 	SEC
C0EF  7E0101            00322 	ROR PPUBUF+1,X
C0F2  7E0001            00323 	ROR PPUBUF,X
C0F5  E8                00324 	INX
C0F6  E8                00325 	INX
C0F7  E8                00326 	INX
C0F8  E8                00327 	INX
C0F9  8614              00328 	STX PPU_POINTER
C0FB  2063C4            00329 	JSR WAIT
C0FE  68                00330 	PLA
C0FF  18                00331 	CLC
C100  6901              00332 	ADC #1
C102  C990              00333 	CMP #$90
C104  D0C2              00334 	BNE .1
C106  60                00335 	RTS
C107                    00336 
C107                    00337 UPDATE_SPRITE:
C107  0A                00338 	ASL A
C108  0A                00339 	ASL A
C109  8508              00340 	STA POINTER
C10B  A902              00341 	LDA #SPRITE_PAGE
C10D  8509              00342 	STA POINTER+1
C10F  A000              00343 	LDY #0
C111  A524              00344 	LDA SPRITE_DATA+0
C113  9108              00345 	STA (POINTER),Y
C115  C8                00346 	INY
C116  A525              00347 	LDA SPRITE_DATA+1
C118  9108              00348 	STA (POINTER),Y
C11A  C8                00349 	INY
C11B  A526              00350 	LDA SPRITE_DATA+2
C11D  9108              00351 	STA (POINTER),Y
C11F  C8                00352 	INY
C120  A527              00353 	LDA SPRITE_DATA+3
C122  9108              00354 	STA (POINTER),Y
C124  60                00355 	RTS
C125                    00356 
C125                    00357 _ABS16:
C125  48                00358 	PHA
C126  98                00359 	TYA
C127  100D              00360 	BPL _NEG16.1
C129  68                00361 	PLA
C12A                    00362 _NEG16:
C12A  49FF              00363 	EOR #$FF
C12C  18                00364 	CLC
C12D  6901              00365 	ADC #1
C12F  48                00366 	PHA
C130  98                00367 	TYA
C131  49FF              00368 	EOR #$FF
C133  6900              00369 	ADC #0
C135  A8                00370 	TAY
C136                    00371 .1:
C136  68                00372 	PLA
C137  60                00373 	RTS
C138                    00374 
C138                    00375 _SGN16:
C138  8402              00376 	STY TEMP
C13A  0502              00377 	ORA TEMP
C13C  F00B              00378 	BEQ .1
C13E  98                00379 	TYA
C13F  3006              00380 	BMI .2
C141  A900              00381 	LDA #0
C143  A8                00382 	TAY
C144  A901              00383 	LDA #1
C146  60                00384 	RTS
C147                    00385 
C147  A9FF              00386 .2:	LDA #$FF
C149  A8                00387 .1:	TAY
C14A  60                00388 	RTS
C14B                    00389 
C14B                    00390 _READ16:
C14B  2055C1            00391 	JSR _READ8
C14E  48                00392 	PHA
C14F  2055C1            00393 	JSR _READ8
C152  A8                00394 	TAY
C153  68                00395 	PLA
C154  60                00396 	RTS
C155                    00397 
C155                    00398 _READ8:
C155  A000              00399 	LDY #0
C157  B10A              00400 	LDA (READ_POINTER),Y
C159  E60A              00401 	INC READ_POINTER
C15B  D002              00402 	BNE .1
C15D  E60B              00403 	INC READ_POINTER+1
C15F                    00404 .1:
C15F  60                00405 	RTS
C160                    00406 
C160                    00407 _PEEK8:
C160  8508              00408 	STA POINTER
C162  8409              00409 	STY POINTER+1
C164  A000              00410 	LDY #0
C166  B108              00411 	LDA (POINTER),Y
C168  60                00412 	RTS
C169                    00413 
C169                    00414 _PEEK16:
C169  8508              00415 	STA POINTER
C16B  8409              00416 	STY POINTER+1
C16D  A000              00417 	LDY #0
C16F  B108              00418 	LDA (POINTER),Y
C171  48                00419 	PHA
C172  C8                00420 	INY
C173  B108              00421 	LDA (POINTER),Y
C175  A8                00422 	TAY
C176  68                00423 	PLA
C177  60                00424 	RTS
C178                    00425 
C178                    00426 	; temp2 contains left side (dividend)
C178                    00427 	; temp contains right side (divisor)
C178                    00428 
C178                    00429 	; 16-bit multiplication.
C178                    00430 _MUL16:
C178  68                00431 	PLA
C179  8506              00432 	STA RESULT
C17B  68                00433 	PLA
C17C  8507              00434 	STA RESULT+1
C17E  68                00435 	PLA
C17F  8505              00436 	STA TEMP2+1
C181  68                00437 	PLA
C182  8504              00438 	STA TEMP2
C184  A507              00439 	LDA RESULT+1
C186  48                00440 	PHA
C187  A506              00441 	LDA RESULT
C189  48                00442 	PHA
C18A  A900              00443 	LDA #0
C18C  8506              00444 	STA RESULT
C18E  8507              00445 	STA RESULT+1
C190  A20F              00446 	LDX #15
C192                    00447 .1:
C192  4605              00448 	LSR TEMP2+1
C194  6604              00449 	ROR TEMP2
C196  900D              00450 	BCC .2
C198  A506              00451 	LDA RESULT
C19A  18                00452 	CLC
C19B  6502              00453 	ADC TEMP
C19D  8506              00454 	STA RESULT
C19F  A507              00455 	LDA RESULT+1
C1A1  6503              00456 	ADC TEMP+1
C1A3  8507              00457 	STA RESULT+1
C1A5  0602              00458 .2:	ASL TEMP
C1A7  2603              00459 	ROL TEMP+1
C1A9  CA                00460 	DEX
C1AA  10E6              00461 	BPL .1
C1AC  A506              00462 	LDA RESULT
C1AE  A407              00463 	LDY RESULT+1
C1B0  60                00464 	RTS
C1B1                    00465 
C1B1                    00466 	; 16-bit signed modulo.
C1B1                    00467 _MOD16S:
C1B1  68                00468 	PLA
C1B2  8506              00469 	STA RESULT
C1B4  68                00470 	PLA
C1B5  8507              00471 	STA RESULT+1
C1B7  68                00472 	PLA
C1B8  8505              00473 	STA TEMP2+1
C1BA  68                00474 	PLA
C1BB  8504              00475 	STA TEMP2
C1BD  A507              00476 	LDA RESULT+1
C1BF  48                00477 	PHA
C1C0  A506              00478 	LDA RESULT
C1C2  48                00479 	PHA
C1C3  A405              00480 	LDY TEMP2+1
C1C5  08                00481 	PHP
C1C6  1009              00482 	BPL .1
C1C8  A504              00483 	LDA TEMP2
C1CA  202AC1            00484 	JSR _NEG16
C1CD  8504              00485 	STA TEMP2
C1CF  8405              00486 	STY TEMP2+1
C1D1                    00487 .1:
C1D1  A403              00488 	LDY TEMP+1
C1D3  1009              00489 	BPL .2
C1D5  A502              00490 	LDA TEMP
C1D7  202AC1            00491 	JSR _NEG16
C1DA  8502              00492 	STA TEMP
C1DC  8403              00493 	STY TEMP+1
C1DE                    00494 .2:
C1DE  207FC2            00495 	JSR _MOD16.1
C1E1  28                00496 	PLP
C1E2  1003              00497 	BPL .3
C1E4  4C2AC1            00498 	JMP _NEG16
C1E7                    00499 .3:
C1E7  60                00500 	RTS
C1E8                    00501 
C1E8                    00502 	; 16-bit signed division.
C1E8                    00503 _DIV16S:
C1E8  68                00504 	PLA
C1E9  8506              00505 	STA RESULT
C1EB  68                00506 	PLA
C1EC  8507              00507 	STA RESULT+1
C1EE  68                00508 	PLA
C1EF  8505              00509 	STA TEMP2+1
C1F1  68                00510 	PLA
C1F2  8504              00511 	STA TEMP2
C1F4  A507              00512 	LDA RESULT+1
C1F6  48                00513 	PHA
C1F7  A506              00514 	LDA RESULT
C1F9  48                00515 	PHA
C1FA  A503              00516 	LDA TEMP+1
C1FC  4505              00517 	EOR TEMP2+1
C1FE  08                00518 	PHP
C1FF  A405              00519 	LDY TEMP2+1
C201  1009              00520 	BPL .1
C203  A504              00521 	LDA TEMP2
C205  202AC1            00522 	JSR _NEG16
C208  8504              00523 	STA TEMP2
C20A  8405              00524 	STY TEMP2+1
C20C                    00525 .1:
C20C  A403              00526 	LDY TEMP+1
C20E  1009              00527 	BPL .2
C210  A502              00528 	LDA TEMP
C212  202AC1            00529 	JSR _NEG16
C215  8502              00530 	STA TEMP
C217  8403              00531 	STY TEMP+1
C219                    00532 .2:
C219  2035C2            00533 	JSR _DIV16.1
C21C  28                00534 	PLP
C21D  1003              00535 	BPL .3
C21F  4C2AC1            00536 	JMP _NEG16
C222                    00537 .3:
C222  60                00538 	RTS
C223                    00539 
C223                    00540 _DIV16:
C223  68                00541 	PLA
C224  8506              00542 	STA RESULT
C226  68                00543 	PLA
C227  8507              00544 	STA RESULT+1
C229  68                00545 	PLA
C22A  8505              00546 	STA TEMP2+1
C22C  68                00547 	PLA
C22D  8504              00548 	STA TEMP2
C22F  A507              00549 	LDA RESULT+1
C231  48                00550 	PHA
C232  A506              00551 	LDA RESULT
C234  48                00552 	PHA
C235                    00553 .1:
C235  A900              00554 	LDA #0
C237  8506              00555 	STA RESULT
C239  8507              00556 	STA RESULT+1
C23B  A20F              00557 	LDX #15
C23D                    00558 .2:
C23D  2604              00559 	ROL TEMP2
C23F  2605              00560 	ROL TEMP2+1
C241  2606              00561 	ROL RESULT
C243  2607              00562 	ROL RESULT+1
C245  A506              00563 	LDA RESULT
C247  38                00564 	SEC
C248  E502              00565 	SBC TEMP
C24A  8506              00566 	STA RESULT
C24C  A507              00567 	LDA RESULT+1
C24E  E503              00568 	SBC TEMP+1
C250  8507              00569 	STA RESULT+1
C252  B00D              00570 	BCS .3
C254  A506              00571 	LDA RESULT
C256  6502              00572 	ADC TEMP
C258  8506              00573 	STA RESULT
C25A  A507              00574 	LDA RESULT+1
C25C  6503              00575 	ADC TEMP+1
C25E  8507              00576 	STA RESULT+1
C260  18                00577 	CLC
C261                    00578 .3:
C261  CA                00579 	DEX
C262  10D9              00580 	BPL .2
C264  2604              00581 	ROL TEMP2
C266  2605              00582 	ROL TEMP2+1
C268  A504              00583 	LDA TEMP2
C26A  A405              00584 	LDY TEMP2+1
C26C  60                00585 	RTS
C26D                    00586 
C26D                    00587 _MOD16:
C26D  68                00588 	PLA
C26E  8506              00589 	STA RESULT
C270  68                00590 	PLA
C271  8507              00591 	STA RESULT+1
C273  68                00592 	PLA
C274  8505              00593 	STA TEMP2+1
C276  68                00594 	PLA
C277  8504              00595 	STA TEMP2
C279  A507              00596 	LDA RESULT+1
C27B  48                00597 	PHA
C27C  A506              00598 	LDA RESULT
C27E  48                00599 	PHA
C27F                    00600 .1:
C27F  A900              00601 	LDA #0
C281  8506              00602 	STA RESULT
C283  8507              00603 	STA RESULT+1
C285  A20F              00604 	LDX #15
C287                    00605 .2:
C287  2604              00606 	ROL TEMP2
C289  2605              00607 	ROL TEMP2+1
C28B  2606              00608 	ROL RESULT
C28D  2607              00609 	ROL RESULT+1
C28F  A506              00610 	LDA RESULT
C291  38                00611 	SEC
C292  E502              00612 	SBC TEMP
C294  8506              00613 	STA RESULT
C296  A507              00614 	LDA RESULT+1
C298  E503              00615 	SBC TEMP+1
C29A  8507              00616 	STA RESULT+1
C29C  B00D              00617 	BCS .3
C29E  A506              00618 	LDA RESULT
C2A0  6502              00619 	ADC TEMP
C2A2  8506              00620 	STA RESULT
C2A4  A507              00621 	LDA RESULT+1
C2A6  6503              00622 	ADC TEMP+1
C2A8  8507              00623 	STA RESULT+1
C2AA  18                00624 	CLC
C2AB                    00625 .3:
C2AB  CA                00626 	DEX
C2AC  10D9              00627 	BPL .2
C2AE  A506              00628 	LDA RESULT
C2B0  A407              00629 	LDY RESULT+1
C2B2  60                00630 	RTS
C2B3                    00631 
C2B3                    00632 	; Random number generator.
C2B3                    00633 	; From my game Mecha Eight.
C2B3                    00634 RANDOM:
C2B3  A51E              00635 	LDA LFSR
C2B5  051F              00636 	ORA LFSR+1
C2B7  D008              00637 	BNE .0
C2B9  A911              00638 	LDA #$11
C2BB  851E              00639 	STA LFSR
C2BD  A978              00640 	LDA #$78
C2BF  851F              00641 	STA LFSR+1
C2C1  A51F              00642 .0:	LDA LFSR+1
C2C3  6A                00643 	ROR A	
C2C4  6A                00644 	ROR A		
C2C5  6A                00645 	ROR A		
C2C6  451F              00646 	EOR LFSR+1	
C2C8  8502              00647 	STA TEMP
C2CA  A51F              00648 	LDA LFSR+1
C2CC  6A                00649 	ROR A
C2CD  6A                00650 	ROR A
C2CE  4502              00651 	EOR TEMP
C2D0  8502              00652 	STA TEMP
C2D2  A51E              00653 	LDA LFSR
C2D4  0A                00654 	ASL A
C2D5  0A                00655 	ASL A
C2D6  4502              00656 	EOR TEMP
C2D8  2A                00657 	ROL A
C2D9  661F              00658 	ROR LFSR+1
C2DB  661E              00659 	ROR LFSR
C2DD  A51E              00660 	LDA LFSR
C2DF  A41F              00661 	LDY LFSR+1
C2E1  60                00662 	RTS
C2E2                    00663 
C2E2                    00664 IRQ_HANDLER:
C2E2  40                00665 	RTI
C2E3                    00666 
C2E3                    00667 NMI_HANDLER:
C2E3  48                00668 	PHA
C2E4  8A                00669 	TXA
C2E5  48                00670 	PHA
C2E6  98                00671 	TYA
C2E7  48                00672 	PHA
C2E8                    00673 	
C2E8                    00674   IF CVBASIC_BANK_SWITCHING
C2E8  ADFFBF            00675 	LDA $BFFF
C2EB  48                00676 	PHA
C2EC                    00677   ENDIF
C2EC                    00678 	; Load sprites
C2EC  A50E              00679 	LDA MODE
C2EE  2904              00680 	AND #4		; Flicker enabled?
C2F0  D00A              00681 	BNE .5		; No, jump.
C2F2  A511              00682 	LDA FLICKER
C2F4  18                00683 	CLC
C2F5  6920              00684 	ADC #32
C2F7  8511              00685 	STA FLICKER
C2F9  4CFEC2            00686 	JMP .6
C2FC                    00687 .5:
C2FC  A900              00688 	LDA #$00
C2FE                    00689 .6:
C2FE  8D0320            00690 	STA OAMADDR
C301  A902              00691 	LDA #SPRITE_PAGE	
C303  8D1440            00692 	STA SPRRAM	; Use DMA for sprite loading
C306                    00693 
C306                    00694 	; Screen changes
C306  A514              00695 	LDA PPU_POINTER	; Any change?
C308  F058              00696 	BEQ .1		; No, jump.
C30A  A200              00697 	LDX #$00
C30C  BC0001            00698 .0:	LDY PPUBUF,X
C30F  E8                00699 	INX
C310  BD0001            00700 	LDA PPUBUF,X
C313  E8                00701 	INX
C314  8D0620            00702 	STA PPUADDR	; High-byte of VRAM address.
C317  2A                00703 	ROL A
C318  8C0620            00704 	STY PPUADDR	; Low-byte of VRAM address.
C31B  B02F              00705 	BCS .2		; Fill routine.
C31D  301F              00706 	BMI .7		; Single byte routine.
C31F                    00707 			; Copy routine.
C31F  BD0101            00708 	LDA PPUBUF+1,X
C322  8500              00709 	STA PPU_SOURCE
C324  BD0201            00710 	LDA PPUBUF+2,X
C327  8501              00711 	STA PPU_SOURCE+1
C329  BC0001            00712 	LDY PPUBUF,X	; Negative counter.
C32C  E8                00713 	INX
C32D  E8                00714 	INX
C32E  E8                00715 	INX
C32F                    00716 .4:
C32F  B100              00717 	LDA (PPU_SOURCE),Y
C331  8D0720            00718 	STA PPUDATA
C334  C8                00719 	INY
C335  D0F8              00720 	BNE .4
C337  E414              00721 	CPX PPU_POINTER
C339  D0D1              00722 	BNE .0
C33B  4C5EC3            00723 	JMP .11
C33E                    00724 
C33E                    00725 	; Single byte
C33E                    00726 .7:
C33E  BD0001            00727 	LDA PPUBUF,X
C341  E8                00728 	INX
C342  8D0720            00729 	STA PPUDATA
C345  E414              00730 	CPX PPU_POINTER
C347  D0C3              00731 	BNE .0
C349  4C5EC3            00732 	JMP .11
C34C                    00733 
C34C                    00734 	; Filling data	
C34C                    00735 .2:
C34C  BC0001            00736 	LDY PPUBUF,X
C34F  E8                00737 	INX
C350  BD0001            00738 	LDA PPUBUF,X
C353  E8                00739 	INX
C354                    00740 .3:
C354  8D0720            00741 	STA PPUDATA
C357  88                00742 	DEY
C358  D0FA              00743 	BNE .3	
C35A  E414              00744 	CPX PPU_POINTER
C35C  D0AE              00745 	BNE .0
C35E                    00746 
C35E                    00747 .11:
C35E  A900              00748 	LDA #0
C360  8514              00749 	STA PPU_POINTER
C362                    00750 .1:
C362                    00751 
C362                    00752 	; Final settings for PPU
C362  A900              00753 	LDA #0
C364  8D0620            00754 	STA PPUADDR
C367  8D0620            00755 	STA PPUADDR
C36A  A518              00756 	LDA SCROLL_X
C36C  8D0520            00757 	STA PPUSCROLL	
C36F  A51A              00758 	LDA SCROLL_Y
C371  8D0520            00759 	STA PPUSCROLL
C374  A516              00760 	LDA PPU_CTRL
C376  4A                00761 	LSR A
C377  4A                00762 	LSR A
C378  8515              00763 	STA PPU_TEMP
C37A  A51B              00764 	LDA SCROLL_Y+1
C37C  6A                00765 	ROR A
C37D  2615              00766 	ROL PPU_TEMP	
C37F  A519              00767 	LDA SCROLL_X+1
C381  6A                00768 	ROR A
C382  2615              00769 	ROL PPU_TEMP
C384  A515              00770 	LDA PPU_TEMP
C386  8D0020            00771 	STA PPUCTRL
C389  A517              00772 	LDA PPU_MASK
C38B  8D0120            00773 	STA PPUMASK
C38E                    00774 
C38E  AD0220            00775 	LDA PPUSTATUS	; VDP interruption clear.
C391  8510              00776 	STA VDP_STATUS
C393                    00777 
C393                    00778 	; Read controllers
C393  A901              00779 	LDA #$01
C395  8D1640            00780 	STA CONT1
C398  851D              00781 	STA CONT_BITS
C39A  4A                00782 	LSR A
C39B  8D1640            00783 	STA CONT1
C39E                    00784 
C39E  AD1640            00785 	LDA CONT1
C3A1  4A                00786 	LSR A
C3A2  261D              00787 	ROL CONT_BITS
C3A4  90F8              00788 	BCC $-6
C3A6                    00789 
C3A6  202EC4            00790 	JSR CONVERT_JOYSTICK
C3A9  8520              00791 	STA JOY1_DATA
C3AB  8622              00792 	STX KEY1_DATA
C3AD                    00793 
C3AD  A901              00794 	LDA #$01
C3AF  8D1640            00795 	STA CONT1
C3B2  851D              00796 	STA CONT_BITS
C3B4  4A                00797 	LSR A
C3B5  8D1640            00798 	STA CONT1
C3B8                    00799 
C3B8  AD1740            00800 	LDA CONT2
C3BB  4A                00801 	LSR A
C3BC  261D              00802 	ROL CONT_BITS
C3BE  90F8              00803 	BCC $-6
C3C0                    00804 
C3C0  202EC4            00805 	JSR CONVERT_JOYSTICK
C3C3  8521              00806 	STA JOY2_DATA
C3C5  8623              00807 	STX KEY2_DATA
C3C7                    00808 
C3C7                    00809     IF CVBASIC_MUSIC_PLAYER
C3C7  A54E              00810 	LDA MUSIC_MODE
C3C9  F003              00811 	BEQ .10
C3CB  205DC8            00812 	JSR MUSIC_HARDWARE
C3CE                    00813 .10:
C3CE                    00814     ENDIF
C3CE  E612              00815 	INC FRAME
C3D0  D002              00816 	BNE .8
C3D2  E613              00817 	INC FRAME+1
C3D4                    00818 .8:
C3D4  E61E              00819 	INC LFSR	; Make LFSR more random
C3D6  E61E              00820 	INC LFSR
C3D8  E61E              00821 	INC LFSR
C3DA                    00822     IF CVBASIC_MUSIC_PLAYER
C3DA  A50F              00823 	LDA NTSC
C3DC  F00D              00824 	BEQ .12
C3DE  A64D              00825 	LDX MUSIC_TICK
C3E0  E8                00826 	INX
C3E1  E006              00827 	CPX #6
C3E3  D002              00828 	BNE .14
C3E5  A200              00829 	LDX #0
C3E7  864D              00830 .14:	STX MUSIC_TICK
C3E9  F007              00831 	BEQ .9
C3EB                    00832 .12:
C3EB  A54E              00833 	LDA MUSIC_MODE
C3ED  F003              00834 	BEQ .9
C3EF  20CBC5            00835 	JSR MUSIC_GENERATE
C3F2                    00836 .9:
C3F2                    00837     ENDIF
C3F2                    00838 	; This is like saving extra registers, because these
C3F2                    00839 	; are used by the compiled code, and we don't want
C3F2                    00840 	; any reentrancy.
C3F2  A502              00841 	LDA TEMP+0
C3F4  48                00842 	PHA
C3F5  A503              00843 	LDA TEMP+1
C3F7  48                00844 	PHA
C3F8  A504              00845 	LDA TEMP+2
C3FA  48                00846 	PHA
C3FB  A505              00847 	LDA TEMP+3
C3FD  48                00848 	PHA
C3FE  A506              00849 	LDA TEMP+4
C400  48                00850 	PHA
C401  A507              00851 	LDA TEMP+5
C403  48                00852 	PHA
C404  A508              00853 	LDA TEMP+6
C406  48                00854 	PHA
C407  A509              00855 	LDA TEMP+7
C409  48                00856 	PHA
C40A                    00857 
C40A  68                00858 	PLA
C40B  8509              00859 	STA TEMP+7
C40D  68                00860 	PLA
C40E  8508              00861 	STA TEMP+6
C410  68                00862 	PLA
C411  8507              00863 	STA TEMP+5
C413  68                00864 	PLA
C414  8506              00865 	STA TEMP+4
C416  68                00866 	PLA
C417  8505              00867 	STA TEMP+3
C419  68                00868 	PLA
C41A  8504              00869 	STA TEMP+2
C41C  68                00870 	PLA
C41D  8503              00871 	STA TEMP+1
C41F  68                00872 	PLA
C420  8502              00873 	STA TEMP+0
C422                    00874 
C422                    00875   IF CVBASIC_BANK_SWITCHING
C422  68                00876 	PLA
C423  051C              00877 	ORA CHRRAM_BANK
C425  8D00C0            00878 	STA BANKSEL
C428                    00879   ENDIF
C428  68                00880 	PLA
C429  A8                00881 	TAY
C42A  68                00882 	PLA
C42B  AA                00883 	TAX
C42C  68                00884 	PLA
C42D  40                00885 	RTI
C42E                    00886 
C42E                    00887 CONVERT_JOYSTICK:
C42E  A900              00888 	LDA #0
C430  A20F              00889 	LDX #15
C432  661D              00890 	ROR CONT_BITS
C434  9002              00891 	BCC $+4
C436  0902              00892 	ORA #2
C438  661D              00893 	ROR CONT_BITS
C43A  9002              00894 	BCC $+4
C43C  0908              00895 	ORA #8
C43E  661D              00896 	ROR CONT_BITS
C440  9002              00897 	BCC $+4
C442  0904              00898 	ORA #4
C444  661D              00899 	ROR CONT_BITS
C446  9002              00900 	BCC $+4
C448  0901              00901 	ORA #1
C44A  661D              00902 	ROR CONT_BITS
C44C  9002              00903 	BCC $+4
C44E  A20B              00904 	LDX #11
C450  661D              00905 	ROR CONT_BITS
C452  9002              00906 	BCC $+4
C454  A20A              00907 	LDX #10
C456  661D              00908 	ROR CONT_BITS
C458  9002              00909 	BCC $+4
C45A  0940              00910 	ORA #$40
C45C  661D              00911 	ROR CONT_BITS
C45E  9002              00912 	BCC $+4
C460  0980              00913 	ORA #$80
C462  60                00914 	RTS
C463                    00915 
C463                    00916 WAIT:
C463  A512              00917 	LDA FRAME
C465  C512              00918 .1:	CMP FRAME
C467  F0FC              00919 	BEQ .1
C469  60                00920 	RTS
C46A                    00921 
C46A                    00922 PRINT_STRING_CURSOR_CONSTANT:
C46A  68                00923 	PLA
C46B  8502              00924 	STA TEMP
C46D  68                00925 	PLA
C46E  8503              00926 	STA TEMP+1
C470  A001              00927 	LDY #1
C472  B102              00928 	LDA (TEMP),Y
C474  850C              00929 	STA CURSOR
C476  C8                00930 	INY
C477  B102              00931 	LDA (TEMP),Y
C479  850D              00932 	STA CURSOR+1
C47B  C8                00933 	INY
C47C  B102              00934 	LDA (TEMP),Y
C47E  8504              00935 	STA TEMP2
C480  98                00936 	TYA
C481  18                00937 	CLC
C482  6502              00938 	ADC TEMP
C484  8502              00939 	STA TEMP
C486  9002              00940 	BCC $+4
C488  E603              00941 	INC TEMP+1
C48A  A504              00942 	LDA TEMP2
C48C  D016              00943 	BNE PRINT_STRING.2
C48E                    00944 
C48E                    00945 PRINT_STRING_CURSOR:
C48E  850C              00946 	STA CURSOR
C490  840D              00947 	STY CURSOR+1
C492                    00948 PRINT_STRING:
C492  68                00949 	PLA
C493  8502              00950 	STA TEMP
C495  68                00951 	PLA
C496  8503              00952 	STA TEMP+1
C498  A001              00953 	LDY #1
C49A  B102              00954 	LDA (TEMP),Y
C49C  8504              00955 	STA TEMP2
C49E  E602              00956 	INC TEMP
C4A0  D002              00957 	BNE $+4
C4A2  E603              00958 	INC TEMP+1
C4A4  18                00959 .2:	CLC
C4A5  6502              00960 	ADC TEMP
C4A7  A8                00961 	TAY
C4A8  A900              00962 	LDA #0
C4AA  6503              00963 	ADC TEMP+1
C4AC  48                00964 	PHA
C4AD  98                00965 	TYA
C4AE  48                00966 	PHA
C4AF  E602              00967 	INC TEMP
C4B1  D002              00968 	BNE $+4
C4B3  E603              00969 	INC TEMP+1
C4B5  A614              00970 	LDX PPU_POINTER
C4B7  A50C              00971 	LDA CURSOR
C4B9  9D0001            00972 	STA PPUBUF,X
C4BC  A50D              00973 	LDA CURSOR+1
C4BE  2907              00974 	AND #$07
C4C0  0920              00975 	ORA #$20
C4C2  9D0101            00976 	STA PPUBUF+1,X
C4C5  A900              00977 	LDA #0
C4C7  38                00978 	SEC
C4C8  E504              00979 	SBC TEMP2
C4CA  9D0201            00980 	STA PPUBUF+2,X
C4CD  A502              00981 	LDA TEMP
C4CF  38                00982 	SEC
C4D0  FD0201            00983 	SBC PPUBUF+2,X
C4D3  9D0301            00984 	STA PPUBUF+3,X
C4D6  A503              00985 	LDA TEMP+1
C4D8  E900              00986 	SBC #0
C4DA  9D0401            00987 	STA PPUBUF+4,X
C4DD  8A                00988 	TXA
C4DE  18                00989 	CLC
C4DF  6905              00990 	ADC #5
C4E1  8514              00991 	STA PPU_POINTER
C4E3  A504              00992 	LDA TEMP2
C4E5  18                00993 	CLC
C4E6  650C              00994 	ADC CURSOR
C4E8  850C              00995 	STA CURSOR
C4EA  9002              00996 	BCC .1
C4EC  E60D              00997 	INC CURSOR+1
C4EE                    00998 .1:	
C4EE  60                00999 	RTS
C4EF                    01000 
C4EF                    01001 PRINT_NUMBER:
C4EF  A200              01002 	LDX #0
C4F1  8602              01003 	STX TEMP
C4F3  78                01004 	SEI
C4F4                    01005 PRINT_NUMBER5:
C4F4  A210              01006 	LDX #10000
C4F6  8604              01007 	STX TEMP2
C4F8  A227              01008 	LDX #10000/256
C4FA  8605              01009 	STX TEMP2+1
C4FC  202FC5            01010 	JSR PRINT_DIGIT
C4FF                    01011 PRINT_NUMBER4:
C4FF  A2E8              01012 	LDX #1000
C501  8604              01013 	STX TEMP2
C503  A203              01014 	LDX #1000/256
C505  8605              01015 	STX TEMP2+1
C507  202FC5            01016 	JSR PRINT_DIGIT
C50A                    01017 PRINT_NUMBER3:
C50A  A264              01018 	LDX #100
C50C  8604              01019 	STX TEMP2
C50E  A200              01020 	LDX #0
C510  8605              01021 	STX TEMP2+1
C512  202FC5            01022 	JSR PRINT_DIGIT
C515                    01023 PRINT_NUMBER2:
C515  A20A              01024 	LDX #10
C517  8604              01025 	STX TEMP2
C519  A200              01026 	LDX #0
C51B  8605              01027 	STX TEMP2+1
C51D  202FC5            01028 	JSR PRINT_DIGIT
C520                    01029 PRINT_NUMBER1:
C520  A201              01030 	LDX #1
C522  8604              01031 	STX TEMP2
C524  8602              01032 	STX TEMP
C526  A200              01033 	LDX #0
C528  8605              01034 	STX TEMP2+1
C52A  202FC5            01035 	JSR PRINT_DIGIT
C52D  58                01036 	CLI
C52E  60                01037 	RTS
C52F                    01038 
C52F                    01039 PRINT_DIGIT:
C52F  A22F              01040 	LDX #$2F
C531                    01041 .2:
C531  E8                01042 	INX
C532  38                01043 	SEC
C533  E504              01044 	SBC TEMP2
C535  48                01045 	PHA
C536  98                01046 	TYA
C537  E505              01047 	SBC TEMP2+1
C539  A8                01048 	TAY
C53A  68                01049 	PLA
C53B  B0F4              01050 	BCS .2
C53D  18                01051 	CLC
C53E  6504              01052 	ADC TEMP2
C540  48                01053 	PHA
C541  98                01054 	TYA
C542  6505              01055 	ADC TEMP2+1
C544  A8                01056 	TAY
C545  68                01057 	PLA
C546  E030              01058 	CPX #$30
C548  D00E              01059 	BNE .3
C54A  A602              01060 	LDX TEMP
C54C  D001              01061 	BNE .4
C54E  60                01062 	RTS
C54F                    01063 
C54F  CA                01064 .4:	DEX
C550  F004              01065 	BEQ .6
C552  A603              01066 	LDX TEMP+1
C554  D008              01067 	BNE PRINT_CHAR
C556                    01068 .6:
C556  A230              01069 	LDX #$30
C558  48                01070 .3:	PHA
C559  A901              01071 	LDA #1
C55B  8502              01072 	STA TEMP
C55D  68                01073 	PLA
C55E                    01074 
C55E                    01075 PRINT_CHAR:
C55E  48                01076 	PHA
C55F  98                01077 	TYA
C560  48                01078 	PHA
C561  A50D              01079 	LDA CURSOR+1
C563  2907              01080 	AND #$07
C565  0920              01081 	ORA #$20
C567  A8                01082 	TAY
C568  A50C              01083 	LDA CURSOR
C56A  2000C0            01084 	JSR WRTVRM
C56D  E60C              01085 	INC CURSOR
C56F  D002              01086 	BNE .1
C571  E60D              01087 	INC CURSOR+1
C573                    01088 .1:
C573  68                01089 	PLA
C574  A8                01090 	TAY
C575  68                01091 	PLA
C576  60                01092 	RTS
C577                    01093 
C577                    01094 MODE_0:
C577  20C6C0            01095 	JSR CLS
C57A                    01096 CLEAR_SPRITES:
C57A  A9F0              01097 	LDA #$F0
C57C  A200              01098 	LDX #0
C57E                    01099 .1:
C57E  9D0002            01100 	STA $0200,X
C581  E8                01101 	INX
C582  E8                01102 	INX
C583  E8                01103 	INX
C584  E8                01104 	INX
C585  D0F7              01105 	BNE .1
C587  60                01106 	RTS
C588                    01107 
C588                    01108 MUSIC_INIT:
C588  A940              01109 	LDA #$40
C58A  8D1740            01110 	STA $4017
C58D  A910              01111 	LDA #$10
C58F  8D0040            01112 	STA $4000	; Channel 1 silent
C592  8D0440            01113 	STA $4004	; Channel 2 silent
C595  8D0C40            01114 	STA $400C	; Channel 4 silent
C598  A90B              01115 	LDA #$0B
C59A  8D1540            01116 	STA $4015	; Enable channel 1, 2 and 4.
C59D  A900              01117 	LDA #$00
C59F  8D1040            01118 	STA $4010
C5A2                    01119     IF CVBASIC_MUSIC_PLAYER
C5A2                    01120     ELSE	
C5A2                    01121 	RTS
C5A2                    01122     ENDIF
C5A2                    01123 
C5A2                    01124     IF CVBASIC_MUSIC_PLAYER
C5A2  A903              01125 	LDA #MUSIC_SILENCE
C5A4  A0C9              01126 	LDY #MUSIC_SILENCE>>8
C5A6                    01127 	;
C5A6                    01128 	; Play music.
C5A6                    01129 	; YA = Pointer to music.
C5A6                    01130 	;
C5A6                    01131 MUSIC_PLAY:
C5A6  78                01132 	SEI
C5A7  8534              01133 	STA MUSIC_POINTER
C5A9  8435              01134 	STY MUSIC_POINTER+1
C5AB  A000              01135 	LDY #0
C5AD  8436              01136 	STY MUSIC_NOTE_COUNTER
C5AF  B134              01137 	LDA (MUSIC_POINTER),Y
C5B1  8531              01138 	STA MUSIC_TIMING
C5B3  C8                01139 	INY
C5B4  844F              01140 	STY MUSIC_PLAYING
C5B6  E634              01141 	INC MUSIC_POINTER
C5B8  D002              01142 	BNE $+4
C5BA  E635              01143 	INC MUSIC_POINTER+1
C5BC  A534              01144 	LDA MUSIC_POINTER
C5BE  A435              01145 	LDY MUSIC_POINTER+1
C5C0  8532              01146 	STA MUSIC_START
C5C2  8433              01147 	STY MUSIC_START+1
C5C4                    01148     IF CVBASIC_BANK_SWITCHING
C5C4  ADFFBF            01149 	LDA $BFFF
C5C7  8530              01150 	STA MUSIC_BANK
C5C9                    01151     ENDIF
C5C9  58                01152 	CLI
C5CA  60                01153 	RTS
C5CB                    01154 
C5CB                    01155 	;
C5CB                    01156 	; Generates music
C5CB                    01157 	;
C5CB                    01158 MUSIC_GENERATE:
C5CB  A910              01159 	LDA #$10
C5CD  8548              01160 	STA AUDIO_VOL1
C5CF  8549              01161 	STA AUDIO_VOL2
C5D1  854A              01162 	STA AUDIO_VOL3
C5D3  854B              01163 	STA AUDIO_VOL4HW
C5D5  A536              01164 	LDA MUSIC_NOTE_COUNTER
C5D7  F003              01165 	BEQ .1
C5D9  4C5CC6            01166 	JMP .2
C5DC                    01167 .1:
C5DC                    01168     IF CVBASIC_BANK_SWITCHING
C5DC  A530              01169 	LDA MUSIC_BANK
C5DE  051C              01170 	ORA CHRRAM_BANK
C5E0  8D00C0            01171 	STA BANKSEL
C5E3                    01172     ENDIF
C5E3  A000              01173 	LDY #0
C5E5  B134              01174 	LDA (MUSIC_POINTER),Y
C5E7  C9FE              01175 	CMP #$FE	; End of music?
C5E9  D005              01176 	BNE .3		; No, jump.
C5EB  A900              01177 	LDA #0		; Keep at same place.
C5ED  854F              01178 	STA MUSIC_PLAYING
C5EF  60                01179 	RTS
C5F0                    01180 
C5F0  C9FD              01181 .3:	CMP #$FD	; Repeat music?
C5F2  D00B              01182 	BNE .4
C5F4  A532              01183 	LDA MUSIC_START
C5F6  A433              01184 	LDY MUSIC_START+1
C5F8  8534              01185 	STA MUSIC_POINTER
C5FA  8435              01186 	STY MUSIC_POINTER+1
C5FC  4CDCC5            01187 	JMP .1
C5FF                    01188 
C5FF  A531              01189 .4:	LDA MUSIC_TIMING
C601  293F              01190 	AND #$3F	; Restart note time.
C603  8536              01191 	STA MUSIC_NOTE_COUNTER
C605                    01192 
C605  B134              01193 	LDA (MUSIC_POINTER),Y
C607  C93F              01194 	CMP #$3F	; Sustain?
C609  F00F              01195 	BEQ .5
C60B  29C0              01196 	AND #$C0
C60D  8537              01197 	STA MUSIC_INSTRUMENT_1
C60F  B134              01198 	LDA (MUSIC_POINTER),Y
C611  293F              01199 	AND #$3F
C613  0A                01200 	ASL A
C614  8538              01201 	STA MUSIC_NOTE_1
C616  A900              01202 	LDA #0
C618  8539              01203 	STA MUSIC_COUNTER_1
C61A                    01204 .5:
C61A  C8                01205 	INY
C61B  B134              01206 	LDA (MUSIC_POINTER),Y
C61D  C93F              01207 	CMP #$3F	; Sustain?
C61F  F00F              01208 	BEQ .6
C621  29C0              01209 	AND #$C0
C623  853A              01210 	STA MUSIC_INSTRUMENT_2
C625  B134              01211 	LDA (MUSIC_POINTER),Y
C627  293F              01212 	AND #$3F
C629  0A                01213 	ASL A
C62A  853B              01214 	STA MUSIC_NOTE_2
C62C  A900              01215 	LDA #0
C62E  853C              01216 	STA MUSIC_COUNTER_2
C630                    01217 .6:
C630  C8                01218 	INY
C631  B134              01219 	LDA (MUSIC_POINTER),Y
C633  C93F              01220 	CMP #$3F	; Sustain?
C635  F00F              01221 	BEQ .7
C637  29C0              01222 	AND #$C0
C639  853D              01223 	STA MUSIC_INSTRUMENT_3
C63B  B134              01224 	LDA (MUSIC_POINTER),Y
C63D  293F              01225 	AND #$3F
C63F  0A                01226 	ASL A
C640  853E              01227 	STA MUSIC_NOTE_3
C642  A900              01228 	LDA #0
C644  853F              01229 	STA MUSIC_COUNTER_3
C646                    01230 .7:
C646  C8                01231 	INY
C647  B134              01232 	LDA (MUSIC_POINTER),Y
C649  8540              01233 	STA MUSIC_DRUM
C64B  A900              01234 	LDA #0	
C64D  8541              01235 	STA MUSIC_COUNTER_4
C64F  A534              01236 	LDA MUSIC_POINTER
C651  18                01237 	CLC
C652  6904              01238 	ADC #4
C654  8534              01239 	STA MUSIC_POINTER
C656  A535              01240 	LDA MUSIC_POINTER+1
C658  6900              01241 	ADC #0
C65A  8535              01242 	STA MUSIC_POINTER+1
C65C                    01243 .2:
C65C  A438              01244 	LDY MUSIC_NOTE_1
C65E  F00D              01245 	BEQ .8
C660  A537              01246 	LDA MUSIC_INSTRUMENT_1
C662  A639              01247 	LDX MUSIC_COUNTER_1
C664  2037C7            01248 	JSR MUSIC_NOTE2FREQ
C667  8542              01249 	STA AUDIO_FREQ1
C669  8443              01250 	STY AUDIO_FREQ1+1
C66B  8648              01251 	STX AUDIO_VOL1
C66D                    01252 .8:
C66D  A43B              01253 	LDY MUSIC_NOTE_2
C66F  F00D              01254 	BEQ .9
C671  A53A              01255 	LDA MUSIC_INSTRUMENT_2
C673  A63C              01256 	LDX MUSIC_COUNTER_2
C675  2037C7            01257 	JSR MUSIC_NOTE2FREQ
C678  8544              01258 	STA AUDIO_FREQ2
C67A  8445              01259 	STY AUDIO_FREQ2+1
C67C  8649              01260 	STX AUDIO_VOL2
C67E                    01261 .9:
C67E  A43E              01262 	LDY MUSIC_NOTE_3
C680  F00D              01263 	BEQ .10
C682  A53D              01264 	LDA MUSIC_INSTRUMENT_3
C684  A63F              01265 	LDX MUSIC_COUNTER_3
C686  2037C7            01266 	JSR MUSIC_NOTE2FREQ
C689  8546              01267 	STA AUDIO_FREQ3
C68B  8447              01268 	STY AUDIO_FREQ3+1
C68D  864A              01269 	STX AUDIO_VOL3
C68F                    01270 .10:
C68F  A540              01271 	LDA MUSIC_DRUM
C691  F03A              01272 	BEQ .11
C693  C901              01273 	CMP #1		; 1 - Long drum.
C695  D011              01274 	BNE .12
C697  A541              01275 	LDA MUSIC_COUNTER_4
C699  C903              01276 	CMP #3
C69B  B030              01277 	BCS .11
C69D                    01278 .15:
C69D  A906              01279 	LDA #$06
C69F  854C              01280 	STA AUDIO_NOISE
C6A1  A99C              01281 	LDA #$9C
C6A3  854B              01282 	STA AUDIO_VOL4HW
C6A5  4CCDC6            01283 	JMP .11
C6A8                    01284 
C6A8  C902              01285 .12:	CMP #2		; 2 - Short drum.
C6AA  D011              01286 	BNE .14
C6AC  A541              01287 	LDA MUSIC_COUNTER_4
C6AE  C900              01288 	CMP #0
C6B0  D01B              01289 	BNE .11
C6B2  A902              01290 	LDA #$02
C6B4  854C              01291 	STA AUDIO_NOISE
C6B6  A99C              01292 	LDA #$9C
C6B8  854B              01293 	STA AUDIO_VOL4HW
C6BA  4CCDC6            01294 	JMP .11
C6BD                    01295 
C6BD                    01296 .14:	;CMP #3		; 3 - Roll.
C6BD                    01297 	;BNE
C6BD  A541              01298 	LDA MUSIC_COUNTER_4
C6BF  C902              01299 	CMP #2
C6C1  90DA              01300 	BCC .15
C6C3  0A                01301 	ASL A
C6C4  38                01302 	SEC
C6C5  E531              01303 	SBC MUSIC_TIMING
C6C7  9004              01304 	BCC .11
C6C9  C904              01305 	CMP #4
C6CB  90D0              01306 	BCC .15
C6CD                    01307 .11:
C6CD  A639              01308 	LDX MUSIC_COUNTER_1
C6CF  E8                01309 	INX
C6D0  E018              01310 	CPX #$18
C6D2  D002              01311 	BNE $+4
C6D4  A210              01312 	LDX #$10
C6D6  8639              01313 	STX MUSIC_COUNTER_1
C6D8                    01314 
C6D8  A63C              01315 	LDX MUSIC_COUNTER_2
C6DA  E8                01316 	INX
C6DB  E018              01317 	CPX #$18
C6DD  D002              01318 	BNE $+4
C6DF  A210              01319 	LDX #$10
C6E1  863C              01320 	STX MUSIC_COUNTER_2
C6E3                    01321 
C6E3  A63F              01322 	LDX MUSIC_COUNTER_3
C6E5  E8                01323 	INX
C6E6  E018              01324 	CPX #$18
C6E8  D002              01325 	BNE $+4
C6EA  A210              01326 	LDX #$10
C6EC  863F              01327 	STX MUSIC_COUNTER_3
C6EE                    01328 
C6EE  E641              01329 	INC MUSIC_COUNTER_4
C6F0  C636              01330 	DEC MUSIC_NOTE_COUNTER
C6F2  60                01331 	RTS
C6F3                    01332 
C6F3                    01333 MUSIC_FLUTE:
C6F3  B9DDC7            01334 	LDA MUSIC_NOTES_TABLE,Y
C6F6  18                01335 	CLC
C6F7  7D1FC7            01336 	ADC .2,X
C6FA  48                01337 	PHA
C6FB  B9DEC7            01338 	LDA MUSIC_NOTES_TABLE+1,Y
C6FE  6900              01339 	ADC #0
C700  A8                01340 	TAY
C701  BD07C7            01341 	LDA .1,X
C704  AA                01342 	TAX
C705  68                01343 	PLA
C706  60                01344 	RTS
C707                    01345 
C707                    01346 .1:
C707  9A9C9D9D9C9C9C9C  01347 	DB $9A,$9C,$9D,$9D,$9C,$9C,$9C,$9C
C70F  9B9B9B9B9A9A9A9A  01348 	DB $9B,$9B,$9B,$9B,$9A,$9A,$9A,$9A
C717  9B9B9B9B9A9A9A9A  01349 	DB $9B,$9B,$9B,$9B,$9A,$9A,$9A,$9A
C71F                    01350 
C71F                    01351 .2:
C71F  0000000000010101  01352 	DB 0,0,0,0,0,1,1,1
C727  0001010100010101  01353 	DB 0,1,1,1,0,1,1,1
C72F  0001010100010101  01354 	DB 0,1,1,1,0,1,1,1
C737                    01355 
C737                    01356 	;
C737                    01357 	; Converts note to frequency.
C737                    01358 	; Input:
C737                    01359 	;   A = Instrument.
C737                    01360 	;   Y = Note (1-62)
C737                    01361 	;   X = Instrument counter.
C737                    01362 	; Output:
C737                    01363 	;   YA = Frequency.
C737                    01364 	;   X = Volume.
C737                    01365 	;
C737                    01366 MUSIC_NOTE2FREQ:
C737  C940              01367 	CMP #$40
C739  902E              01368 	BCC MUSIC_PIANO
C73B  F052              01369 	BEQ MUSIC_CLARINET
C73D  C980              01370 	CMP #$80
C73F  F0B2              01371 	BEQ MUSIC_FLUTE
C741                    01372 	;
C741                    01373 	; Bass instrument
C741                    01374 	; 
C741                    01375 MUSIC_BASS:
C741  B9DDC7            01376 	LDA MUSIC_NOTES_TABLE,Y
C744  0A                01377 	ASL A
C745  48                01378 	PHA
C746  B9DEC7            01379 	LDA MUSIC_NOTES_TABLE+1,Y
C749  2A                01380 	ROL A
C74A  A8                01381 	TAY
C74B  BD51C7            01382 	LDA .1,X
C74E  AA                01383 	TAX
C74F  68                01384 	PLA
C750  60                01385 	RTS
C751                    01386 
C751                    01387 .1:
C751  9D9D9C9C9B9B9A9A  01388 	DB $9D,$9D,$9C,$9C,$9B,$9B,$9A,$9A
C759  9999989897979696  01389 	DB $99,$99,$98,$98,$97,$97,$96,$96
C761  9595949493939292  01390 	DB $95,$95,$94,$94,$93,$93,$92,$92
C769                    01391 
C769                    01392 MUSIC_PIANO:
C769  B9DDC7            01393 	LDA MUSIC_NOTES_TABLE,Y
C76C  48                01394 	PHA
C76D  B9DEC7            01395 	LDA MUSIC_NOTES_TABLE+1,Y
C770  A8                01396 	TAY
C771  BD77C7            01397 	LDA .1,X
C774  AA                01398 	TAX
C775  68                01399 	PLA
C776  60                01400 	RTS
C777                    01401 
C777                    01402 .1:	
C777  DCDBDBDADAD9D9D8  01403 	DB $DC,$DB,$DB,$DA,$DA,$D9,$D9,$D8
C77F  D8D7D7D6D6D5D5D4  01404 	DB $D8,$D7,$D7,$D6,$D6,$D5,$D5,$D4
C787  D4D4D5D5D4D4D3D3  01405 	DB $D4,$D4,$D5,$D5,$D4,$D4,$D3,$D3
C78F                    01406 
C78F                    01407 MUSIC_CLARINET:
C78F  B9DDC7            01408 	LDA MUSIC_NOTES_TABLE,Y
C792  18                01409 	CLC
C793  7DC5C7            01410 	ADC .2,X
C796  48                01411 	PHA
C797  BDC5C7            01412 	LDA .2,X
C79A  3003              01413 	BMI .3
C79C  A900              01414 	LDA #$00
C79E  2C                01415 	DB $2C
C79F  A9FF              01416 .3:	LDA #$FF
C7A1  79DEC7            01417 	ADC MUSIC_NOTES_TABLE+1,Y
C7A4  4A                01418 	LSR A
C7A5  A8                01419 	TAY
C7A6  BDADC7            01420 	LDA .1,X
C7A9  AA                01421 	TAX
C7AA  68                01422 	PLA
C7AB  6A                01423 	ROR A
C7AC  60                01424 	RTS
C7AD                    01425 
C7AD                    01426 .1:
C7AD  1D1E1E1D1D1C1C1C  01427 	DB $1D,$1E,$1E,$1D,$1D,$1C,$1C,$1C
C7B5  1B1B1B1B1C1C1C1C  01428 	DB $1B,$1B,$1B,$1B,$1C,$1C,$1C,$1C
C7BD  1B1B1B1B1C1C1C1C  01429 	DB $1B,$1B,$1B,$1B,$1C,$1C,$1C,$1C
C7C5                    01430 
C7C5                    01431 .2:
C7C5  00000000FFFFFF00  01432 	DB 0,0,0,0,-1,-1,-1,0
C7CD  01010100FFFFFF00  01433 	DB 1,1,1,0,-1,-1,-1,0
C7D5  01010100FFFFFF00  01434 	DB 1,1,1,0,-1,-1,-1,0
C7DD                    01435 
C7DD                    01436 	;
C7DD                    01437 	; Musical notes table.
C7DD                    01438 	;
C7DD                    01439 MUSIC_NOTES_TABLE:
C7DD                    01440 	; Silence - 0
C7DD  0000              01441 	DW 0
C7DF                    01442 	; Values for 1.79 mhz. / 16, offset 0
C7DF                    01443 	; 2nd octave - Index 1
C7DF  AE064E06F4059E05  01444 	DW 1710,1614,1524,1438,1357,1281,1209,1141,1077,1017,960,906
C7F7                    01445 	; 3rd octave - Index 13
C7F7  57032703FA02CF02  01446 	DW 855,807,762,719,679,641,605,571,539,508,480,453
C80F                    01447 	; 4th octave - Index 25
C80F  AC0194017D016801  01448 	DW 428,404,381,360,339,320,302,285,269,254,240,226
C827                    01449 	; 5th octave - Index 37
C827  D600CA00BE00B400  01450 	DW 214,202,190,180,170,160,151,143,135,127,120,113
C83F                    01451 	; 6th octave - Index 49
C83F  6B0065005F005A00  01452 	DW 107,101,95,90,85,80,76,71,67,64,60,57
C857                    01453 	; 7th octave - Index 61
C857  350032003000      01454 	DW 53,50,48
C85D                    01455 
C85D                    01456 	;
C85D                    01457 	; When the frequency upper byte is rewritten, the
C85D                    01458 	; output phase is reset, and it creates glitches.
C85D                    01459 	; So it doesn't rewrite frequency unless the note
C85D                    01460 	; changes.
C85D                    01461 	;
C85D                    01462 MUSIC_HARDWARE:
C85D  A54E              01463 	LDA MUSIC_MODE
C85F  C904              01464 	CMP #4		; PLAY SIMPLE?
C861  901C              01465 	BCC .9		; Yes, jump.
C863  A549              01466 	LDA AUDIO_VOL2
C865  290F              01467 	AND #$0F
C867  D016              01468 	BNE .9
C869  A54A              01469 	LDA AUDIO_VOL3
C86B  290F              01470 	AND #$0F
C86D  F010              01471 	BEQ .9
C86F  A54A              01472 	LDA AUDIO_VOL3
C871  8549              01473 	STA AUDIO_VOL2
C873  A910              01474 	LDA #$10
C875  854A              01475 	STA AUDIO_VOL3
C877  A546              01476 	LDA AUDIO_FREQ3
C879  A447              01477 	LDY AUDIO_FREQ3+1
C87B  8544              01478 	STA AUDIO_FREQ2
C87D  8445              01479 	STY AUDIO_FREQ2+1
C87F                    01480 .9:
C87F  A542              01481 	LDA AUDIO_FREQ1
C881  8D0240            01482 	STA $4002
C884  A539              01483 	LDA MUSIC_COUNTER_1
C886  C901              01484 	CMP #1
C888  D007              01485 	BNE .3
C88A  A543              01486 	LDA AUDIO_FREQ1+1
C88C  0908              01487 	ORA #$08	; Keeps tone enabled
C88E  8D0340            01488 	STA $4003
C891  A548              01489 .3:	LDA AUDIO_VOL1
C893  8D0040            01490 	STA $4000
C896  A900              01491 	LDA #0
C898  8D0140            01492 	STA $4001
C89B                    01493 
C89B  A544              01494 	LDA AUDIO_FREQ2
C89D  8D0640            01495 	STA $4006
C8A0  A53C              01496 	LDA MUSIC_COUNTER_2
C8A2  C901              01497 	CMP #1
C8A4  D007              01498 	BNE .4
C8A6  A545              01499 	LDA AUDIO_FREQ2+1
C8A8  0908              01500 	ORA #$08	; Keeps tone enabled
C8AA  8D0740            01501 	STA $4007
C8AD  A549              01502 .4:	LDA AUDIO_VOL2
C8AF  8D0440            01503 	STA $4004
C8B2  A900              01504 	LDA #0
C8B4  8D0540            01505 	STA $4005
C8B7                    01506 
C8B7  A54E              01507 	LDA MUSIC_MODE
C8B9  C904              01508 	CMP #4		; PLAY SIMPLE?
C8BB  902B              01509 	BCC .6		; Yes, jump.
C8BD                    01510 
C8BD  4647              01511 	LSR AUDIO_FREQ3+1
C8BF  6646              01512 	ROR AUDIO_FREQ3
C8C1  A546              01513 	LDA AUDIO_FREQ3
C8C3  8D0A40            01514 	STA $400A
C8C6  A53F              01515 	LDA MUSIC_COUNTER_3
C8C8  C901              01516 	CMP #1
C8CA  D007              01517 	BNE .5
C8CC  A547              01518 	LDA AUDIO_FREQ3+1
C8CE  0908              01519 	ORA #$08	; Keeps tone enabled
C8D0  8D0B40            01520 	STA $400B
C8D3                    01521 .5:
C8D3  A920              01522 	LDA #$20
C8D5  8D0840            01523 	STA $4008
C8D8  A54A              01524 	LDA AUDIO_VOL3
C8DA  290F              01525 	AND #$0F
C8DC  D005              01526 	BNE .1
C8DE  A90B              01527 	LDA #$0B
C8E0  4CE5C8            01528 	JMP .2
C8E3                    01529 
C8E3  A90F              01530 .1:	LDA #$0F
C8E5  8D1540            01531 .2:	STA $4015
C8E8                    01532 
C8E8  A54E              01533 .6:	LDA MUSIC_MODE
C8EA  4A                01534 	LSR A		; NO DRUMS?
C8EB  9015              01535 	BCC .8
C8ED  A541              01536 	LDA MUSIC_COUNTER_4
C8EF  C901              01537 	CMP #1
C8F1  D00A              01538 	BNE .7
C8F3  A54C              01539 	LDA AUDIO_NOISE
C8F5  8D0E40            01540 	STA $400E
C8F8  0908              01541 	ORA #$08	; Keeps tone enabled
C8FA  8D0F40            01542 	STA $400F
C8FD  A54B              01543 .7:	LDA AUDIO_VOL4HW
C8FF  8D0C40            01544 	STA $400C
C902                    01545 .8:
C902  60                01546 	RTS
C903                    01547 
C903                    01548 MUSIC_SILENCE:
C903  08                01549 	DB 8
C904  00000000          01550 	DB 0,0,0,0
C908  FE                01551 	DB -2
C909                    01552     ENDIF
C909                    01553 
C909                    01554 
C909                    01555     IF CVBASIC_BANK_SWITCHING
C909                    01556 COPY_CHRRAM:
C909  A900              01557 	LDA #$00
C90B  8D0620            01558 	STA PPUADDR
C90E  8D0620            01559 	STA PPUADDR
C911  8502              01560 	STA TEMP
C913  8603              01561 	STX TEMP+1
C915  A220              01562 	LDX #32
C917                    01563 .1:
C917  201EC9            01564 	JSR COPY_PAGE
C91A  CA                01565 	DEX
C91B  D0FA              01566 	BNE .1
C91D  60                01567 	RTS
C91E                    01568 
C91E                    01569 COPY_PAGE:
C91E  A000              01570 	LDY #0
C920                    01571 .1:
C920  B102              01572 	LDA (TEMP),Y
C922  8D0720            01573 	STA PPUDATA
C925  C8                01574 	INY
C926  D0F8              01575 	BNE .1
C928  E603              01576 	INC TEMP+1
C92A  60                01577 	RTS
C92B                    01578     ENDIF
C92B                    01579 
C92B                    01580 START:
C92B  78                01581 	SEI
C92C  D8                01582 	CLD
C92D                    01583 
C92D  2C0220            01584 	BIT PPUSTATUS
C930                    01585 
C930  A940              01586 	LDA #$40
C932  8D1740            01587 	STA $4017
C935  A910              01588 	LDA #$10
C937  8D0040            01589 	STA $4000	; Channel 1 silent
C93A  8D0440            01590 	STA $4004	; Channel 2 silent
C93D  8D0C40            01591 	STA $400C	; Channel 4 silent
C940  A90B              01592 	LDA #$0B
C942  8D1540            01593 	STA $4015	; Enable channel 1, 2 and 4.
C945  A900              01594 	LDA #$00
C947  8D1040            01595 	STA $4010
C94A                    01596 
C94A  A900              01597 	LDA #0
C94C  8D0020            01598 	STA PPUCTRL
C94F  8D0120            01599 	STA PPUMASK
C952                    01600 	
C952  AA                01601 	TAX
C953  9500              01602 .1:	STA $00,X
C955  9D0001            01603 	STA $0100,X
C958  9D0003            01604 	STA $0300,X
C95B  9D0004            01605 	STA $0400,X
C95E  9D0005            01606 	STA $0500,X
C961  9D0006            01607 	STA $0600,X
C964  9D0007            01608 	STA $0700,X
C967  E8                01609 	INX
C968  D0E9              01610 	BNE .1
C96A                    01611 
C96A  A2FF              01612 	LDX #STACK
C96C  9A                01613 	TXS
C96D                    01614 
C96D  207AC5            01615 	JSR CLEAR_SPRITES
C970                    01616 
C970                    01617 	;
C970                    01618 	; The NES starts with the PPU registers write-protected.
C970                    01619 	; Around 29000 cycles must happen before these can be written.
C970                    01620 	;
C970                    01621 	
C970                    01622 	; lidnariq code for detecting NTSC/PAL/Dendy system
C970                    01623 	; From: https://forums.nesdev.org/viewtopic.php?p=163258#p163258
C970  A200              01624 	LDX #0
C972  A000              01625 	LDY #0
C974  2C0220            01626 	BIT PPUSTATUS
C977  10FB              01627 	BPL $-3	
C979                    01628 .5:
C979  E8                01629 	INX
C97A  D001              01630 	BNE .6
C97C  C8                01631 	INY
C97D                    01632 .6:
C97D                    01633 			; About 27384 cycles passed at this time.
C97D  2C0220            01634 	BIT PPUSTATUS
C980  10F7              01635 	BPL .5
C982  A900              01636 	LDA #0
C984  8D0020            01637 	STA PPUCTRL
C987  8D0120            01638 	STA PPUMASK
C98A                    01639 
C98A  98                01640 	TYA
C98B  C910              01641 	CMP #16
C98D  9001              01642 	BCC .7
C98F  4A                01643 	LSR A
C990  18                01644 .7:	CLC
C991  69F7              01645 	ADC #$F7
C993  C903              01646 	CMP #3
C995  9002              01647 	BCC .8
C997  A903              01648 	LDA #3		; Bad
C999                    01649 	; 0=NTSC, 1=Pal, 2=Dendy, 3=Bad
C999                    01650 .8:
C999  C900              01651 	CMP #0		; Pass NTSC unchanged
C99B  F002              01652 	BEQ .9
C99D  A901              01653 	LDA #1		; All other PAL
C99F  4901              01654 .9:	EOR #1
C9A1  850F              01655 	STA NTSC
C9A3                    01656 			; About 57165 cycles passed at this time.
C9A3                    01657 
C9A3                    01658     IF CVBASIC_BANK_SWITCHING
C9A3                    01659 	; Copy CHRROM to CHRRAM
C9A3  A90D              01660 	LDA #$00+CVBASIC_BANK_ROM_SIZE/16-3
C9A5  8D00C0            01661 	STA BANKSEL
C9A8  A280              01662 	LDX #$80
C9AA  2009C9            01663 	JSR COPY_CHRRAM
C9AD                    01664 
C9AD  A92D              01665 	LDA #$20+CVBASIC_BANK_ROM_SIZE/16-3
C9AF  8D00C0            01666 	STA BANKSEL
C9B2  A2A0              01667 	LDX #$A0
C9B4  2009C9            01668 	JSR COPY_CHRRAM
C9B7                    01669 
C9B7  A94E              01670 	LDA #$40+CVBASIC_BANK_ROM_SIZE/16-2
C9B9  8D00C0            01671 	STA BANKSEL
C9BC  A280              01672 	LDX #$80
C9BE  2009C9            01673 	JSR COPY_CHRRAM
C9C1                    01674 
C9C1  A96E              01675 	LDA #$60+CVBASIC_BANK_ROM_SIZE/16-2
C9C3  8D00C0            01676 	STA BANKSEL
C9C6  A2A0              01677 	LDX #$A0
C9C8  2009C9            01678 	JSR COPY_CHRRAM
C9CB                    01679 
C9CB  A900              01680 	LDA #$00	; BANK SELECT 1
C9CD  8D00C0            01681 	STA BANKSEL
C9D0                    01682     ENDIF
C9D0                    01683 
C9D0                    01684 	; Clear 2K of pattern memory
C9D0  A920              01685 	LDA #$20
C9D2  8D0620            01686 	STA PPUADDR
C9D5  A900              01687 	LDA #$00
C9D7  8D0620            01688 	STA PPUADDR
C9DA  A278              01689 	LDX #$78
C9DC  A920              01690 	LDA #$20
C9DE                    01691 .2:
C9DE  8D0720            01692 	STA PPUDATA
C9E1  8D0720            01693 	STA PPUDATA
C9E4  8D0720            01694 	STA PPUDATA
C9E7  8D0720            01695 	STA PPUDATA
C9EA  8D0720            01696 	STA PPUDATA
C9ED  8D0720            01697 	STA PPUDATA
C9F0  8D0720            01698 	STA PPUDATA
C9F3  8D0720            01699 	STA PPUDATA
C9F6  CA                01700 	DEX
C9F7  D0E5              01701 	BNE .2
C9F9                    01702 
C9F9  A240              01703 	LDX #$40
C9FB  A900              01704 	LDA #$00
C9FD  8D0720            01705 .3:	STA PPUDATA
CA00  CA                01706 	DEX
CA01  D0FA              01707 	BNE .3
CA03                    01708 
CA03                    01709 	; Setup base palette
CA03  A93F              01710 	LDA #$3F
CA05  8D0620            01711 	STA PPUADDR
CA08  A900              01712 	LDA #$00
CA0A  8D0620            01713 	STA PPUADDR
CA0D  A208              01714 	LDX #8
CA0F                    01715 .4:
CA0F  A90F              01716 	LDA #$0F	; Black
CA11  8D0720            01717 	STA PPUDATA
CA14  A935              01718 	LDA #$35	; Red
CA16  8D0720            01719 	STA PPUDATA
CA19  A93A              01720 	LDA #$3A	; Green
CA1B  8D0720            01721 	STA PPUDATA
CA1E  A930              01722 	LDA #$30	; White
CA20  8D0720            01723 	STA PPUDATA
CA23  CA                01724 	DEX
CA24  D0E9              01725 	BNE .4
CA26                    01726 
CA26  2C0220            01727 	BIT PPUSTATUS
CA29  10FB              01728 	BPL $-3	
CA2B  A91E              01729 	LDA #$1E	; Color normal, Sprites visible, Background visible, No clipping, Color.
CA2D  8D0120            01730 	STA PPUMASK
CA30  8517              01731 	STA PPU_MASK
CA32  A9A8              01732 	LDA #$A8	; Enable NMI, 8x16 sprites, BG=$0000, SPR=$1000, NAME=$2000
CA34  8516              01733 	STA PPU_CTRL
CA36  8D0020            01734 	STA PPUCTRL
CA39                    01735 
CA39  2088C5            01736 	JSR MUSIC_INIT
CA3C                    01737 
CA3C  2077C5            01738 	JSR MODE_0
CA3F                    01739 
CA3F  A900              01740 	LDA #$00
CA41  8520              01741 	STA JOY1_DATA
CA43  8521              01742 	STA JOY2_DATA
CA45  A90F              01743 	LDA #$0F
CA47  8522              01744 	STA KEY1_DATA
CA49  8523              01745 	STA KEY2_DATA
CA4B                    01746 
CA4B                    01747 RAM_END:
CA4B                    01748 	; 	rem
CA4B                    01749 	; 	rem Bank-switching example for NES/Famicom
CA4B                    01750 	; 	rem by Oscar Toledo G. http://nanochess.org
CA4B                    01751 	; 	rem Aug/26/2025
CA4B                    01752 	; 	rem
CA4B                    01753 	; 
CA4B                    01754 	; 	BANK ROM 256	' Select a 256KB target ROM size.
CA4B                    01755 	; 			' Now it is in bank 0.
CA4B                    01756 	; 
CA4B                    01757 	; 	PLAY FULL
CA4B  A905              01758 	LDA #5
CA4D  854E              01759 	STA MUSIC_MODE
CA4F                    01760 	; 	BANK SELECT 1	' Select bank 1 to access.
CA4F  A900              01761 	LDA #0
CA51  051C              01762 	ORA CHRRAM_BANK
CA53  8D00C0            01763 	STA BANKSEL
CA56                    01764 	; 	PLAY tune_1
CA56  A900              01765 	LDA #CVB_TUNE_1
CA58  A080              01766 	LDY #CVB_TUNE_1>>8
CA5A  20A6C5            01767 	JSR MUSIC_PLAY
CA5D                    01768 	; 
CA5D                    01769 	; 	' Display image.
CA5D                    01770 	; 	PALETTE 0,$0F
CA5D  A900              01771 	LDA #0
CA5F  A614              01772 	LDX PPU_POINTER
CA61  9D0001            01773 	STA PPUBUF,X
CA64  A97F              01774 	LDA #$7F
CA66  9D0101            01775 	STA PPUBUF+1,X
CA69  A90F              01776 	LDA #15
CA6B  A614              01777 	LDX PPU_POINTER
CA6D  9D0201            01778 	STA PPUBUF+2,X
CA70  E8                01779 	INX
CA71  E8                01780 	INX
CA72  E8                01781 	INX
CA73  8614              01782 	STX PPU_POINTER
CA75                    01783 	; 	PALETTE 1,$16
CA75  A901              01784 	LDA #1
CA77  A614              01785 	LDX PPU_POINTER
CA79  9D0001            01786 	STA PPUBUF,X
CA7C  A97F              01787 	LDA #$7F
CA7E  9D0101            01788 	STA PPUBUF+1,X
CA81  A916              01789 	LDA #22
CA83  A614              01790 	LDX PPU_POINTER
CA85  9D0201            01791 	STA PPUBUF+2,X
CA88  E8                01792 	INX
CA89  E8                01793 	INX
CA8A  E8                01794 	INX
CA8B  8614              01795 	STX PPU_POINTER
CA8D                    01796 	; 	PALETTE 2,$27
CA8D  A902              01797 	LDA #2
CA8F  A614              01798 	LDX PPU_POINTER
CA91  9D0001            01799 	STA PPUBUF,X
CA94  A97F              01800 	LDA #$7F
CA96  9D0101            01801 	STA PPUBUF+1,X
CA99  A927              01802 	LDA #39
CA9B  A614              01803 	LDX PPU_POINTER
CA9D  9D0201            01804 	STA PPUBUF+2,X
CAA0  E8                01805 	INX
CAA1  E8                01806 	INX
CAA2  E8                01807 	INX
CAA3  8614              01808 	STX PPU_POINTER
CAA5                    01809 	; 	PALETTE 3,$38
CAA5  A903              01810 	LDA #3
CAA7  A614              01811 	LDX PPU_POINTER
CAA9  9D0001            01812 	STA PPUBUF,X
CAAC  A97F              01813 	LDA #$7F
CAAE  9D0101            01814 	STA PPUBUF+1,X
CAB1  A938              01815 	LDA #56
CAB3  A614              01816 	LDX PPU_POINTER
CAB5  9D0201            01817 	STA PPUBUF+2,X
CAB8  E8                01818 	INX
CAB9  E8                01819 	INX
CABA  E8                01820 	INX
CABB  8614              01821 	STX PPU_POINTER
CABD                    01822 	; 	SCREEN DISABLE
CABD  2073C0            01823 	JSR DISSCR
CAC0                    01824 	; 	WAIT	
CAC0  2063C4            01825 	JSR WAIT
CAC3                    01826 	; 
CAC3                    01827 	; 	BANK SELECT 2	' Select bank 2 to access.
CAC3  A901              01828 	LDA #1
CAC5  051C              01829 	ORA CHRRAM_BANK
CAC7  8D00C0            01830 	STA BANKSEL
CACA                    01831 	; 
CACA                    01832 	; 	SCREEN image_pattern,0,132,12,16,12
CACA  A93A              01833 	LDA #CVB_IMAGE_PATTERN
CACC  A080              01834 	LDY #CVB_IMAGE_PATTERN>>8
CACE  48                01835 	PHA
CACF  98                01836 	TYA
CAD0  48                01837 	PHA
CAD1  A984              01838 	LDA #132
CAD3  A020              01839 	LDY #32
CAD5  8508              01840 	STA POINTER
CAD7  8409              01841 	STY POINTER+1
CAD9  A90C              01842 	LDA #12
CADB  48                01843 	PHA
CADC  A910              01844 	LDA #16
CADE  48                01845 	PHA
CADF  A90C              01846 	LDA #12
CAE1  A000              01847 	LDY #0
CAE3  AA                01848 	TAX
CAE4  68                01849 	PLA
CAE5  8505              01850 	STA TEMP2+1
CAE7  68                01851 	PLA
CAE8  8504              01852 	STA TEMP2
CAEA  68                01853 	PLA
CAEB  8503              01854 	STA TEMP+1
CAED  68                01855 	PLA
CAEE  8502              01856 	STA TEMP
CAF0  207AC0            01857 	JSR CPYBLK
CAF3                    01858 	; 	WAIT
CAF3  2063C4            01859 	JSR WAIT
CAF6                    01860 	; 	SCREEN ENABLE
CAF6  206CC0            01861 	JSR ENASCR
CAF9                    01862 	; 
CAF9                    01863 	; 	GOSUB display_some_text
CAF9  200080            01864 	JSR CVB_DISPLAY_SOME_TEXT
CAFC                    01865 	; 	
CAFC                    01866 	; 	WHILE 1: WEND
CAFC                    01867 CV1:
CAFC  4CFCCA            01868 	JMP CV1
CAFF                    01869 CV2:
CAFF                    01870 	; 
CAFF                    01871 	; 	BANK 1		' Start of bank 1 data
CAFF                    01872 BANK_0_FREE:	EQU $FFFA-$
CAFF  FFFFFFFFFFFFFFFF  01873 	TIMES $FFFA-$ DB $FF
FFFA  1F                01874 	DB $1F
                        01875 	FORG $00010
8000                    01876 	ORG $8000
8000                    01877 	; 
8000                    01878 	; 	' Bach Invention 8 (BWV779)
8000                    01879 	; 	' Fragment
8000                    01880 	; tune_1:	DATA BYTE 7
8000                    01881 CVB_TUNE_1:
8000  07                01882 	DB $07
8001                    01883 	; 	MUSIC F4,-
8001  1E000000          01884 	DB $1E,$00,$00,$00
8005                    01885 	; 	MUSIC S,-
8005  3F000000          01886 	DB $3F,$00,$00,$00
8009                    01887 	; 	MUSIC A4,-
8009  22000000          01888 	DB $22,$00,$00,$00
800D                    01889 	; 	MUSIC S,-
800D  3F000000          01890 	DB $3F,$00,$00,$00
8011                    01891 	; 	MUSIC F4,-
8011  1E000000          01892 	DB $1E,$00,$00,$00
8015                    01893 	; 	MUSIC S,-
8015  3F000000          01894 	DB $3F,$00,$00,$00
8019                    01895 	; 	MUSIC C5,-
8019  25000000          01896 	DB $25,$00,$00,$00
801D                    01897 	; 	MUSIC S,-
801D  3F000000          01898 	DB $3F,$00,$00,$00
8021                    01899 	; 	MUSIC F4,-
8021  1E000000          01900 	DB $1E,$00,$00,$00
8025                    01901 	; 	MUSIC S,-
8025  3F000000          01902 	DB $3F,$00,$00,$00
8029                    01903 	; 
8029                    01904 	; 	MUSIC F5,-
8029  2A000000          01905 	DB $2A,$00,$00,$00
802D                    01906 	; 	MUSIC S,-
802D  3F000000          01907 	DB $3F,$00,$00,$00
8031                    01908 	; 	MUSIC E5,F3
8031  29120000          01909 	DB $29,$12,$00,$00
8035                    01910 	; 	MUSIC D5,S
8035  273F0000          01911 	DB $27,$3F,$00,$00
8039                    01912 	; 	MUSIC C5,A3
8039  25160000          01913 	DB $25,$16,$00,$00
803D                    01914 	; 	MUSIC D5,S
803D  273F0000          01915 	DB $27,$3F,$00,$00
8041                    01916 	; 	MUSIC C5,F3
8041  25120000          01917 	DB $25,$12,$00,$00
8045                    01918 	; 	MUSIC A4#,S
8045  233F0000          01919 	DB $23,$3F,$00,$00
8049                    01920 	; 	MUSIC A4,C4
8049  22190000          01921 	DB $22,$19,$00,$00
804D                    01922 	; 	MUSIC A4#,S
804D  233F0000          01923 	DB $23,$3F,$00,$00
8051                    01924 	; 	MUSIC A4,F3
8051  22120000          01925 	DB $22,$12,$00,$00
8055                    01926 	; 	MUSIC G4,S
8055  203F0000          01927 	DB $20,$3F,$00,$00
8059                    01928 	; 
8059                    01929 	; 	MUSIC F4,F4
8059  1E1E0000          01930 	DB $1E,$1E,$00,$00
805D                    01931 	; 	MUSIC S,S
805D  3F3F0000          01932 	DB $3F,$3F,$00,$00
8061                    01933 	; 	MUSIC A4,E4
8061  221D0000          01934 	DB $22,$1D,$00,$00
8065                    01935 	; 	MUSIC S,D4
8065  3F1B0000          01936 	DB $3F,$1B,$00,$00
8069                    01937 	; 	MUSIC C5,C4
8069  25190000          01938 	DB $25,$19,$00,$00
806D                    01939 	; 	MUSIC S,D4
806D  3F1B0000          01940 	DB $3F,$1B,$00,$00
8071                    01941 	; 	MUSIC A4,C4
8071  22190000          01942 	DB $22,$19,$00,$00
8075                    01943 	; 	MUSIC S,A3#
8075  3F170000          01944 	DB $3F,$17,$00,$00
8079                    01945 	; 	MUSIC F5,A3
8079  2A160000          01946 	DB $2A,$16,$00,$00
807D                    01947 	; 	MUSIC S,A3#
807D  3F170000          01948 	DB $3F,$17,$00,$00
8081                    01949 	; 	MUSIC C5,A3
8081  25160000          01950 	DB $25,$16,$00,$00
8085                    01951 	; 	MUSIC S,G3
8085  3F140000          01952 	DB $3F,$14,$00,$00
8089                    01953 	; 
8089                    01954 	; 	MUSIC A5,F3
8089  2E120000          01955 	DB $2E,$12,$00,$00
808D                    01956 	; 	MUSIC C6,S
808D  313F0000          01957 	DB $31,$3F,$00,$00
8091                    01958 	; 	MUSIC A5#,A3
8091  2F160000          01959 	DB $2F,$16,$00,$00
8095                    01960 	; 	MUSIC C6,S
8095  313F0000          01961 	DB $31,$3F,$00,$00
8099                    01962 	; 	MUSIC A5,C4
8099  2E190000          01963 	DB $2E,$19,$00,$00
809D                    01964 	; 	MUSIC C6,S
809D  313F0000          01965 	DB $31,$3F,$00,$00
80A1                    01966 	; 	MUSIC A5#,A3
80A1  2F160000          01967 	DB $2F,$16,$00,$00
80A5                    01968 	; 	MUSIC C6,S
80A5  313F0000          01969 	DB $31,$3F,$00,$00
80A9                    01970 	; 	MUSIC A5,F4
80A9  2E1E0000          01971 	DB $2E,$1E,$00,$00
80AD                    01972 	; 	MUSIC C6,S
80AD  313F0000          01973 	DB $31,$3F,$00,$00
80B1                    01974 	; 	MUSIC A5#,C4
80B1  2F190000          01975 	DB $2F,$19,$00,$00
80B5                    01976 	; 	MUSIC C6,S
80B5  313F0000          01977 	DB $31,$3F,$00,$00
80B9                    01978 	; 
80B9                    01979 	; 	MUSIC F5,A3
80B9  2A160000          01980 	DB $2A,$16,$00,$00
80BD                    01981 	; 	MUSIC A5,C4
80BD  2E190000          01982 	DB $2E,$19,$00,$00
80C1                    01983 	; 	MUSIC G5,A3#
80C1  2C170000          01984 	DB $2C,$17,$00,$00
80C5                    01985 	; 	MUSIC A5,C4
80C5  2E190000          01986 	DB $2E,$19,$00,$00
80C9                    01987 	; 	MUSIC F5,A3
80C9  2A160000          01988 	DB $2A,$16,$00,$00
80CD                    01989 	; 	MUSIC A5,C4
80CD  2E190000          01990 	DB $2E,$19,$00,$00
80D1                    01991 	; 	MUSIC G5,A3#
80D1  2C170000          01992 	DB $2C,$17,$00,$00
80D5                    01993 	; 	MUSIC A5,C4
80D5  2E190000          01994 	DB $2E,$19,$00,$00
80D9                    01995 	; 	MUSIC F5,A3
80D9  2A160000          01996 	DB $2A,$16,$00,$00
80DD                    01997 	; 	MUSIC A5,C4
80DD  2E190000          01998 	DB $2E,$19,$00,$00
80E1                    01999 	; 	MUSIC G5,A3#
80E1  2C170000          02000 	DB $2C,$17,$00,$00
80E5                    02001 	; 	MUSIC A5,C4
80E5  2E190000          02002 	DB $2E,$19,$00,$00
80E9                    02003 	; 
80E9                    02004 	; 	MUSIC D5,F3
80E9  27120000          02005 	DB $27,$12,$00,$00
80ED                    02006 	; 	MUSIC F5,A3
80ED  2A160000          02007 	DB $2A,$16,$00,$00
80F1                    02008 	; 	MUSIC E5,G3
80F1  29140000          02009 	DB $29,$14,$00,$00
80F5                    02010 	; 	MUSIC F5,A3
80F5  2A160000          02011 	DB $2A,$16,$00,$00
80F9                    02012 	; 	MUSIC D5,F3
80F9  27120000          02013 	DB $27,$12,$00,$00
80FD                    02014 	; 	MUSIC F5,A3
80FD  2A160000          02015 	DB $2A,$16,$00,$00
8101                    02016 	; 	MUSIC E5,G3
8101  29140000          02017 	DB $29,$14,$00,$00
8105                    02018 	; 	MUSIC F5,A3
8105  2A160000          02019 	DB $2A,$16,$00,$00
8109                    02020 	; 	MUSIC D5,F3
8109  27120000          02021 	DB $27,$12,$00,$00
810D                    02022 	; 	MUSIC F5,A3
810D  2A160000          02023 	DB $2A,$16,$00,$00
8111                    02024 	; 	MUSIC E5,G3
8111  29140000          02025 	DB $29,$14,$00,$00
8115                    02026 	; 	MUSIC F5,A3
8115  2A160000          02027 	DB $2A,$16,$00,$00
8119                    02028 	; 
8119                    02029 	; 	MUSIC B4,D3
8119  240F0000          02030 	DB $24,$0F,$00,$00
811D                    02031 	; 	MUSIC S,F3
811D  3F120000          02032 	DB $3F,$12,$00,$00
8121                    02033 	; 	MUSIC G4,E3
8121  20110000          02034 	DB $20,$11,$00,$00
8125                    02035 	; 	MUSIC S,F3
8125  3F120000          02036 	DB $3F,$12,$00,$00
8129                    02037 	; 	MUSIC D5,D3
8129  270F0000          02038 	DB $27,$0F,$00,$00
812D                    02039 	; 	MUSIC S,F3
812D  3F120000          02040 	DB $3F,$12,$00,$00
8131                    02041 	; 	MUSIC B4,E3
8131  24110000          02042 	DB $24,$11,$00,$00
8135                    02043 	; 	MUSIC S,F3
8135  3F120000          02044 	DB $3F,$12,$00,$00
8139                    02045 	; 	MUSIC F5,D3
8139  2A0F0000          02046 	DB $2A,$0F,$00,$00
813D                    02047 	; 	MUSIC S,F3
813D  3F120000          02048 	DB $3F,$12,$00,$00
8141                    02049 	; 	MUSIC D5,E3
8141  27110000          02050 	DB $27,$11,$00,$00
8145                    02051 	; 	MUSIC S,F3
8145  3F120000          02052 	DB $3F,$12,$00,$00
8149                    02053 	; 
8149                    02054 	; 	MUSIC G5,B3
8149  2C180000          02055 	DB $2C,$18,$00,$00
814D                    02056 	; 	MUSIC A5,S
814D  2E3F0000          02057 	DB $2E,$3F,$00,$00
8151                    02058 	; 	MUSIC G5,G3
8151  2C140000          02059 	DB $2C,$14,$00,$00
8155                    02060 	; 	MUSIC F5,S
8155  2A3F0000          02061 	DB $2A,$3F,$00,$00
8159                    02062 	; 	MUSIC E5,C4
8159  29190000          02063 	DB $29,$19,$00,$00
815D                    02064 	; 	MUSIC F5,S
815D  2A3F0000          02065 	DB $2A,$3F,$00,$00
8161                    02066 	; 	MUSIC E5,G3
8161  29140000          02067 	DB $29,$14,$00,$00
8165                    02068 	; 	MUSIC D5,S
8165  273F0000          02069 	DB $27,$3F,$00,$00
8169                    02070 	; 	MUSIC C5,E4
8169  251D0000          02071 	DB $25,$1D,$00,$00
816D                    02072 	; 	MUSIC D5,S
816D  273F0000          02073 	DB $27,$3F,$00,$00
8171                    02074 	; 	MUSIC C5,C4
8171  25190000          02075 	DB $25,$19,$00,$00
8175                    02076 	; 	MUSIC A4#,S
8175  233F0000          02077 	DB $23,$3F,$00,$00
8179                    02078 	; 
8179                    02079 	; 	MUSIC A4,F4
8179  221E0000          02080 	DB $22,$1E,$00,$00
817D                    02081 	; 	MUSIC S,G4
817D  3F200000          02082 	DB $3F,$20,$00,$00
8181                    02083 	; 	MUSIC D5,F4
8181  271E0000          02084 	DB $27,$1E,$00,$00
8185                    02085 	; 	MUSIC C5,E4
8185  251D0000          02086 	DB $25,$1D,$00,$00
8189                    02087 	; 	MUSIC B4,D4
8189  241B0000          02088 	DB $24,$1B,$00,$00
818D                    02089 	; 	MUSIC C5,E4
818D  251D0000          02090 	DB $25,$1D,$00,$00
8191                    02091 	; 	MUSIC B4,D4
8191  241B0000          02092 	DB $24,$1B,$00,$00
8195                    02093 	; 	MUSIC A4,C4
8195  22190000          02094 	DB $22,$19,$00,$00
8199                    02095 	; 	MUSIC G4,B3
8199  20180000          02096 	DB $20,$18,$00,$00
819D                    02097 	; 	MUSIC A4,C4
819D  22190000          02098 	DB $22,$19,$00,$00
81A1                    02099 	; 	MUSIC G4,B3
81A1  20180000          02100 	DB $20,$18,$00,$00
81A5                    02101 	; 	MUSIC F4,A3
81A5  1E160000          02102 	DB $1E,$16,$00,$00
81A9                    02103 	; 
81A9                    02104 	; 	MUSIC E4,G3
81A9  1D140000          02105 	DB $1D,$14,$00,$00
81AD                    02106 	; 	MUSIC F4,S
81AD  1E3F0000          02107 	DB $1E,$3F,$00,$00
81B1                    02108 	; 	MUSIC E4,C4
81B1  1D190000          02109 	DB $1D,$19,$00,$00
81B5                    02110 	; 	MUSIC D4,B3
81B5  1B180000          02111 	DB $1B,$18,$00,$00
81B9                    02112 	; 	MUSIC C4,A3
81B9  19160000          02113 	DB $19,$16,$00,$00
81BD                    02114 	; 	MUSIC S,B3
81BD  3F180000          02115 	DB $3F,$18,$00,$00
81C1                    02116 	; 	MUSIC C5,A3
81C1  25160000          02117 	DB $25,$16,$00,$00
81C5                    02118 	; 	MUSIC B4,G3
81C5  24140000          02119 	DB $24,$14,$00,$00
81C9                    02120 	; 	MUSIC C5,F3
81C9  25120000          02121 	DB $25,$12,$00,$00
81CD                    02122 	; 	MUSIC S,G3
81CD  3F140000          02123 	DB $3F,$14,$00,$00
81D1                    02124 	; 	MUSIC E4,F3
81D1  1D120000          02125 	DB $1D,$12,$00,$00
81D5                    02126 	; 	MUSIC S,E3
81D5  3F110000          02127 	DB $3F,$11,$00,$00
81D9                    02128 	; 
81D9                    02129 	; 	MUSIC F4,D3
81D9  1E0F0000          02130 	DB $1E,$0F,$00,$00
81DD                    02131 	; 	MUSIC S,E3
81DD  3F110000          02132 	DB $3F,$11,$00,$00
81E1                    02133 	; 	MUSIC C5,D3
81E1  250F0000          02134 	DB $25,$0F,$00,$00
81E5                    02135 	; 	MUSIC S,C3
81E5  3F0D0000          02136 	DB $3F,$0D,$00,$00
81E9                    02137 	; 	MUSIC E4,G3
81E9  1D140000          02138 	DB $1D,$14,$00,$00
81ED                    02139 	; 	MUSIC S,F3
81ED  3F120000          02140 	DB $3F,$12,$00,$00
81F1                    02141 	; 	MUSIC C5,E3
81F1  25110000          02142 	DB $25,$11,$00,$00
81F5                    02143 	; 	MUSIC S,F3
81F5  3F120000          02144 	DB $3F,$12,$00,$00
81F9                    02145 	; 	MUSIC D4,G3
81F9  1B140000          02146 	DB $1B,$14,$00,$00
81FD                    02147 	; 	MUSIC S,S
81FD  3F3F0000          02148 	DB $3F,$3F,$00,$00
8201                    02149 	; 	MUSIC B4,G2
8201  24080000          02150 	DB $24,$08,$00,$00
8205                    02151 	; 	MUSIC S,S
8205  3F3F0000          02152 	DB $3F,$3F,$00,$00
8209                    02153 	; 
8209                    02154 	; 	MUSIC C5,C4
8209  25190000          02155 	DB $25,$19,$00,$00
820D                    02156 	; 	MUSIC S,S
820D  3F3F0000          02157 	DB $3F,$3F,$00,$00
8211                    02158 	; 	MUSIC S,S
8211  3F3F0000          02159 	DB $3F,$3F,$00,$00
8215                    02160 	; 	MUSIC S,S
8215  3F3F0000          02161 	DB $3F,$3F,$00,$00
8219                    02162 	; 	MUSIC STOP
8219  FE000000          02163 	DB $FE,$00,$00,$00
821D                    02164 	; 
821D                    02165 	; 	BANK 2
821D                    02166 BANK_1_FREE:	EQU $BFFF-$
821D  FFFFFFFFFFFFFFFF  02167 	TIMES $BFFF-$ DB $FF
BFFF  00                02168 	DB $00
                        02169 	FORG $04010
8000                    02170 	ORG $8000
8000                    02171 	; 
8000                    02172 	; display_some_text:	PROCEDURE
8000                    02173 CVB_DISPLAY_SOME_TEXT:
8000                    02174 	; 
8000                    02175 	; 	PRINT AT $01d1,"Hi!"
8000  206AC4            02176 	JSR PRINT_STRING_CURSOR_CONSTANT
8003  D10103            02177 	DB $D1,$01,$03
8006  486921            02178 	DB $48,$69,$21
8009                    02179 	; 
8009                    02180 	; 	PRINT AT $0211,"This is bank-"
8009  206AC4            02181 	JSR PRINT_STRING_CURSOR_CONSTANT
800C  11020D            02182 	DB $11,$02,$0D
800F  5468697320697320  02183 	DB $54,$68,$69,$73,$20,$69,$73,$20
8017  62616E6B2D        02184 	DB $62,$61,$6E,$6B,$2D
801C                    02185 	; 
801C                    02186 	; 	PRINT AT $0231,"switching demo."
801C  206AC4            02187 	JSR PRINT_STRING_CURSOR_CONSTANT
801F  31020F            02188 	DB $31,$02,$0F
8022  737769746368696E  02189 	DB $73,$77,$69,$74,$63,$68,$69,$6E
802A  672064656D6F2E    02190 	DB $67,$20,$64,$65,$6D,$6F,$2E
8031                    02191 	; 
8031                    02192 	; 	PRINT AT $0271,":)"
8031  206AC4            02193 	JSR PRINT_STRING_CURSOR_CONSTANT
8034  710202            02194 	DB $71,$02,$02
8037  3A29              02195 	DB $3A,$29
8039                    02196 	; 
8039                    02197 	; 	END
8039  60                02198 	RTS
803A                    02199 	; 
803A                    02200 	; 	' CHRROM is technically outside of the ROM, but for
803A                    02201 	; 	' the purposes of UNROM 512 bank-switching it is saved
803A                    02202 	; 	' in reserved banks and copied to CHRRAM on boot.
803A                    02203 	; 
803A                    02204 	; 	' TMSColor 3.2 Aug/26/2025
803A                    02205 	; 	' Command: ./tmscolor -nes -p1 -t128 -b yo.png yo.bas 
803A                    02206 	; 	' Created: Tue Aug 26 10:07:21 2025
803A                    02207 	; 
803A                    02208 	; 	' Start tile = 128. Total_tiles = 118
803A                    02209 	; 	CHRROM 0 PATTERN 128
803A                    02210 	; 	BITMAP "11112222"
803A                    02211 	; 	BITMAP "11112222"
803A                    02212 	; 	BITMAP "11112222"
803A                    02213 	; 	BITMAP "12222222"
803A                    02214 	; 	BITMAP "22222222"
803A                    02215 	; 	BITMAP "22222222"
803A                    02216 	; 	BITMAP "22222222"
803A                    02217 	; 	BITMAP "22222222"
803A                    02218 	; 
803A                    02219 	; 	BITMAP "22222222"
803A                    02220 	; 	BITMAP "22222222"
803A                    02221 	; 	BITMAP "22222222"
803A                    02222 	; 	BITMAP "22222222"
803A                    02223 	; 	BITMAP "22222222"
803A                    02224 	; 	BITMAP "22222222"
803A                    02225 	; 	BITMAP "22222222"
803A                    02226 	; 	BITMAP "22222222"
803A                    02227 	; 
803A                    02228 	; 	BITMAP "22222222"
803A                    02229 	; 	BITMAP "22222222"
803A                    02230 	; 	BITMAP "22222222"
803A                    02231 	; 	BITMAP "22222222"
803A                    02232 	; 	BITMAP "22222222"
803A                    02233 	; 	BITMAP "22222233"
803A                    02234 	; 	BITMAP "22223333"
803A                    02235 	; 	BITMAP "22333333"
803A                    02236 	; 
803A                    02237 	; 	BITMAP "22222223"
803A                    02238 	; 	BITMAP "22222333"
803A                    02239 	; 	BITMAP "23223333"
803A                    02240 	; 	BITMAP "23333333"
803A                    02241 	; 	BITMAP "33333333"
803A                    02242 	; 	BITMAP "33333333"
803A                    02243 	; 	BITMAP "33333333"
803A                    02244 	; 	BITMAP "33333333"
803A                    02245 	; 
803A                    02246 	; 	BITMAP "33333333"
803A                    02247 	; 	BITMAP "33333333"
803A                    02248 	; 	BITMAP "33333333"
803A                    02249 	; 	BITMAP "33333333"
803A                    02250 	; 	BITMAP "33333333"
803A                    02251 	; 	BITMAP "33333333"
803A                    02252 	; 	BITMAP "33333333"
803A                    02253 	; 	BITMAP "33333333"
803A                    02254 	; 
803A                    02255 	; 	BITMAP "22222222"
803A                    02256 	; 	BITMAP "22222222"
803A                    02257 	; 	BITMAP "22222223"
803A                    02258 	; 	BITMAP "22222233"
803A                    02259 	; 	BITMAP "22222333"
803A                    02260 	; 	BITMAP "22223333"
803A                    02261 	; 	BITMAP "22233333"
803A                    02262 	; 	BITMAP "22333333"
803A                    02263 	; 
803A                    02264 	; 	BITMAP "23333333"
803A                    02265 	; 	BITMAP "33333333"
803A                    02266 	; 	BITMAP "33333333"
803A                    02267 	; 	BITMAP "33333333"
803A                    02268 	; 	BITMAP "33333333"
803A                    02269 	; 	BITMAP "33333333"
803A                    02270 	; 	BITMAP "33333333"
803A                    02271 	; 	BITMAP "33333333"
803A                    02272 	; 
803A                    02273 	; 	BITMAP "22222222"
803A                    02274 	; 	BITMAP "22222222"
803A                    02275 	; 	BITMAP "22222222"
803A                    02276 	; 	BITMAP "22222222"
803A                    02277 	; 	BITMAP "22222233"
803A                    02278 	; 	BITMAP "22222233"
803A                    02279 	; 	BITMAP "22222333"
803A                    02280 	; 	BITMAP "22223333"
803A                    02281 	; 
803A                    02282 	; 	BITMAP "22333333"
803A                    02283 	; 	BITMAP "23333333"
803A                    02284 	; 	BITMAP "33333333"
803A                    02285 	; 	BITMAP "33333333"
803A                    02286 	; 	BITMAP "33333333"
803A                    02287 	; 	BITMAP "33333333"
803A                    02288 	; 	BITMAP "33333333"
803A                    02289 	; 	BITMAP "33333333"
803A                    02290 	; 
803A                    02291 	; 	BITMAP "22223333"
803A                    02292 	; 	BITMAP "22233333"
803A                    02293 	; 	BITMAP "22233333"
803A                    02294 	; 	BITMAP "22333333"
803A                    02295 	; 	BITMAP "23333333"
803A                    02296 	; 	BITMAP "33333333"
803A                    02297 	; 	BITMAP "33333333"
803A                    02298 	; 	BITMAP "33333333"
803A                    02299 	; 
803A                    02300 	; 	BITMAP "33333333"
803A                    02301 	; 	BITMAP "33333333"
803A                    02302 	; 	BITMAP "33333333"
803A                    02303 	; 	BITMAP "33333333"
803A                    02304 	; 	BITMAP "33333322"
803A                    02305 	; 	BITMAP "33332222"
803A                    02306 	; 	BITMAP "33322211"
803A                    02307 	; 	BITMAP "33222111"
803A                    02308 	; 
803A                    02309 	; 	BITMAP "33333333"
803A                    02310 	; 	BITMAP "33333333"
803A                    02311 	; 	BITMAP "33333333"
803A                    02312 	; 	BITMAP "33323333"
803A                    02313 	; 	BITMAP "22222222"
803A                    02314 	; 	BITMAP "11111111"
803A                    02315 	; 	BITMAP "11100111"
803A                    02316 	; 	BITMAP "11111111"
803A                    02317 	; 
803A                    02318 	; 	BITMAP "33333333"
803A                    02319 	; 	BITMAP "33333333"
803A                    02320 	; 	BITMAP "33333333"
803A                    02321 	; 	BITMAP "33333333"
803A                    02322 	; 	BITMAP "33333333"
803A                    02323 	; 	BITMAP "22333333"
803A                    02324 	; 	BITMAP "11112333"
803A                    02325 	; 	BITMAP "11111223"
803A                    02326 	; 
803A                    02327 	; 	BITMAP "22222222"
803A                    02328 	; 	BITMAP "22222223"
803A                    02329 	; 	BITMAP "22222233"
803A                    02330 	; 	BITMAP "22222233"
803A                    02331 	; 	BITMAP "22222333"
803A                    02332 	; 	BITMAP "22223333"
803A                    02333 	; 	BITMAP "22223333"
803A                    02334 	; 	BITMAP "22233333"
803A                    02335 	; 
803A                    02336 	; 	BITMAP "33333333"
803A                    02337 	; 	BITMAP "33333333"
803A                    02338 	; 	BITMAP "33333333"
803A                    02339 	; 	BITMAP "33333333"
803A                    02340 	; 	BITMAP "33333332"
803A                    02341 	; 	BITMAP "33333332"
803A                    02342 	; 	BITMAP "33333322"
803A                    02343 	; 	BITMAP "33333322"
803A                    02344 	; 
803A                    02345 	; 	BITMAP "33221111"
803A                    02346 	; 	BITMAP "32211111"
803A                    02347 	; 	BITMAP "22211111"
803A                    02348 	; 	BITMAP "22111111"
803A                    02349 	; 	BITMAP "21111111"
803A                    02350 	; 	BITMAP "21111112"
803A                    02351 	; 	BITMAP "11112222"
803A                    02352 	; 	BITMAP "11122222"
803A                    02353 	; 
803A                    02354 	; 	BITMAP "11111111"
803A                    02355 	; 	BITMAP "11111111"
803A                    02356 	; 	BITMAP "11111111"
803A                    02357 	; 	BITMAP "11111111"
803A                    02358 	; 	BITMAP "11111111"
803A                    02359 	; 	BITMAP "22222221"
803A                    02360 	; 	BITMAP "22222222"
803A                    02361 	; 	BITMAP "22222222"
803A                    02362 	; 
803A                    02363 	; 	BITMAP "11111112"
803A                    02364 	; 	BITMAP "11111111"
803A                    02365 	; 	BITMAP "11111111"
803A                    02366 	; 	BITMAP "11111111"
803A                    02367 	; 	BITMAP "11111111"
803A                    02368 	; 	BITMAP "11111111"
803A                    02369 	; 	BITMAP "22111111"
803A                    02370 	; 	BITMAP "22221111"
803A                    02371 	; 
803A                    02372 	; 	BITMAP "22333333"
803A                    02373 	; 	BITMAP "11122333"
803A                    02374 	; 	BITMAP "11000233"
803A                    02375 	; 	BITMAP "11100023"
803A                    02376 	; 	BITMAP "11100001"
803A                    02377 	; 	BITMAP "11100000"
803A                    02378 	; 	BITMAP "11100000"
803A                    02379 	; 	BITMAP "11110000"
803A                    02380 	; 
803A                    02381 	; 	BITMAP "33333333"
803A                    02382 	; 	BITMAP "33333333"
803A                    02383 	; 	BITMAP "33333333"
803A                    02384 	; 	BITMAP "33333333"
803A                    02385 	; 	BITMAP "33333333"
803A                    02386 	; 	BITMAP "13333333"
803A                    02387 	; 	BITMAP "01333333"
803A                    02388 	; 	BITMAP "00233333"
803A                    02389 	; 
803A                    02390 	; 	BITMAP "22233333"
803A                    02391 	; 	BITMAP "22333333"
803A                    02392 	; 	BITMAP "22333333"
803A                    02393 	; 	BITMAP "22333333"
803A                    02394 	; 	BITMAP "23333333"
803A                    02395 	; 	BITMAP "23333333"
803A                    02396 	; 	BITMAP "33333333"
803A                    02397 	; 	BITMAP "33333333"
803A                    02398 	; 
803A                    02399 	; 	BITMAP "33333321"
803A                    02400 	; 	BITMAP "33333321"
803A                    02401 	; 	BITMAP "33333321"
803A                    02402 	; 	BITMAP "33333212"
803A                    02403 	; 	BITMAP "33333212"
803A                    02404 	; 	BITMAP "33333222"
803A                    02405 	; 	BITMAP "33333222"
803A                    02406 	; 	BITMAP "33333222"
803A                    02407 	; 
803A                    02408 	; 	BITMAP "11222222"
803A                    02409 	; 	BITMAP "12222222"
803A                    02410 	; 	BITMAP "22222222"
803A                    02411 	; 	BITMAP "22222222"
803A                    02412 	; 	BITMAP "22222222"
803A                    02413 	; 	BITMAP "22222222"
803A                    02414 	; 	BITMAP "22222222"
803A                    02415 	; 	BITMAP "22222222"
803A                    02416 	; 
803A                    02417 	; 	BITMAP "22221111"
803A                    02418 	; 	BITMAP "22222111"
803A                    02419 	; 	BITMAP "22222111"
803A                    02420 	; 	BITMAP "22222211"
803A                    02421 	; 	BITMAP "22222221"
803A                    02422 	; 	BITMAP "22222221"
803A                    02423 	; 	BITMAP "22222221"
803A                    02424 	; 	BITMAP "22222221"
803A                    02425 	; 
803A                    02426 	; 	BITMAP "11110000"
803A                    02427 	; 	BITMAP "11110000"
803A                    02428 	; 	BITMAP "11111000"
803A                    02429 	; 	BITMAP "11111000"
803A                    02430 	; 	BITMAP "11111000"
803A                    02431 	; 	BITMAP "11111000"
803A                    02432 	; 	BITMAP "11111000"
803A                    02433 	; 	BITMAP "11111100"
803A                    02434 	; 
803A                    02435 	; 	BITMAP "00033333"
803A                    02436 	; 	BITMAP "00023333"
803A                    02437 	; 	BITMAP "00003333"
803A                    02438 	; 	BITMAP "00002333"
803A                    02439 	; 	BITMAP "00002333"
803A                    02440 	; 	BITMAP "00001333"
803A                    02441 	; 	BITMAP "00000333"
803A                    02442 	; 	BITMAP "00000233"
803A                    02443 	; 
803A                    02444 	; 	BITMAP "22222222"
803A                    02445 	; 	BITMAP "22222223"
803A                    02446 	; 	BITMAP "22222223"
803A                    02447 	; 	BITMAP "22222233"
803A                    02448 	; 	BITMAP "22222233"
803A                    02449 	; 	BITMAP "22222233"
803A                    02450 	; 	BITMAP "22222333"
803A                    02451 	; 	BITMAP "22222333"
803A                    02452 	; 
803A                    02453 	; 	BITMAP "33332122"
803A                    02454 	; 	BITMAP "33332122"
803A                    02455 	; 	BITMAP "33332122"
803A                    02456 	; 	BITMAP "33332222"
803A                    02457 	; 	BITMAP "33333122"
803A                    02458 	; 	BITMAP "33333122"
803A                    02459 	; 	BITMAP "33332111"
803A                    02460 	; 	BITMAP "33332111"
803A                    02461 	; 
803A                    02462 	; 	BITMAP "22222222"
803A                    02463 	; 	BITMAP "22222222"
803A                    02464 	; 	BITMAP "22222222"
803A                    02465 	; 	BITMAP "22222232"
803A                    02466 	; 	BITMAP "22232233"
803A                    02467 	; 	BITMAP "22222222"
803A                    02468 	; 	BITMAP "11122222"
803A                    02469 	; 	BITMAP "11112222"
803A                    02470 	; 
803A                    02471 	; 	BITMAP "22222222"
803A                    02472 	; 	BITMAP "22222222"
803A                    02473 	; 	BITMAP "22222222"
803A                    02474 	; 	BITMAP "22233333"
803A                    02475 	; 	BITMAP "22233222"
803A                    02476 	; 	BITMAP "22222111"
803A                    02477 	; 	BITMAP "22221110"
803A                    02478 	; 	BITMAP "22221112"
803A                    02479 	; 
803A                    02480 	; 	BITMAP "22222221"
803A                    02481 	; 	BITMAP "22222211"
803A                    02482 	; 	BITMAP "22222211"
803A                    02483 	; 	BITMAP "32222111"
803A                    02484 	; 	BITMAP "22221111"
803A                    02485 	; 	BITMAP "01111111"
803A                    02486 	; 	BITMAP "11222211"
803A                    02487 	; 	BITMAP "33333222"
803A                    02488 	; 
803A                    02489 	; 	BITMAP "11111100"
803A                    02490 	; 	BITMAP "11111110"
803A                    02491 	; 	BITMAP "11111110"
803A                    02492 	; 	BITMAP "11111110"
803A                    02493 	; 	BITMAP "11111110"
803A                    02494 	; 	BITMAP "11111110"
803A                    02495 	; 	BITMAP "11110000"
803A                    02496 	; 	BITMAP "11110001"
803A                    02497 	; 
803A                    02498 	; 	BITMAP "00000233"
803A                    02499 	; 	BITMAP "00000232"
803A                    02500 	; 	BITMAP "00000132"
803A                    02501 	; 	BITMAP "00000122"
803A                    02502 	; 	BITMAP "01110122"
803A                    02503 	; 	BITMAP "11000112"
803A                    02504 	; 	BITMAP "00001111"
803A                    02505 	; 	BITMAP "00001122"
803A                    02506 	; 
803A                    02507 	; 	BITMAP "33333333"
803A                    02508 	; 	BITMAP "22233333"
803A                    02509 	; 	BITMAP "22222233"
803A                    02510 	; 	BITMAP "22222223"
803A                    02511 	; 	BITMAP "22222222"
803A                    02512 	; 	BITMAP "22222222"
803A                    02513 	; 	BITMAP "22222222"
803A                    02514 	; 	BITMAP "22222222"
803A                    02515 	; 
803A                    02516 	; 	BITMAP "33333333"
803A                    02517 	; 	BITMAP "33333333"
803A                    02518 	; 	BITMAP "33333333"
803A                    02519 	; 	BITMAP "33333333"
803A                    02520 	; 	BITMAP "33333333"
803A                    02521 	; 	BITMAP "33333333"
803A                    02522 	; 	BITMAP "23333333"
803A                    02523 	; 	BITMAP "23333333"
803A                    02524 	; 
803A                    02525 	; 	BITMAP "22222333"
803A                    02526 	; 	BITMAP "22222333"
803A                    02527 	; 	BITMAP "22222333"
803A                    02528 	; 	BITMAP "22222333"
803A                    02529 	; 	BITMAP "22222333"
803A                    02530 	; 	BITMAP "22222333"
803A                    02531 	; 	BITMAP "22222333"
803A                    02532 	; 	BITMAP "22223333"
803A                    02533 	; 
803A                    02534 	; 	BITMAP "33332111"
803A                    02535 	; 	BITMAP "33222122"
803A                    02536 	; 	BITMAP "32321222"
803A                    02537 	; 	BITMAP "32101211"
803A                    02538 	; 	BITMAP "10233110"
803A                    02539 	; 	BITMAP "12333111"
803A                    02540 	; 	BITMAP "33333112"
803A                    02541 	; 	BITMAP "33233122"
803A                    02542 	; 
803A                    02543 	; 	BITMAP "11111122"
803A                    02544 	; 	BITMAP "22222112"
803A                    02545 	; 	BITMAP "22212111"
803A                    02546 	; 	BITMAP "11110111"
803A                    02547 	; 	BITMAP "22000111"
803A                    02548 	; 	BITMAP "22111101"
803A                    02549 	; 	BITMAP "22222211"
803A                    02550 	; 	BITMAP "22222212"
803A                    02551 	; 
803A                    02552 	; 	BITMAP "22211222"
803A                    02553 	; 	BITMAP "22211221"
803A                    02554 	; 	BITMAP "22111211"
803A                    02555 	; 	BITMAP "22111121"
803A                    02556 	; 	BITMAP "22111122"
803A                    02557 	; 	BITMAP "22111122"
803A                    02558 	; 	BITMAP "22211122"
803A                    02559 	; 	BITMAP "22211122"
803A                    02560 	; 
803A                    02561 	; 	BITMAP "33332112"
803A                    02562 	; 	BITMAP "12231001"
803A                    02563 	; 	BITMAP "23110110"
803A                    02564 	; 	BITMAP "22211221"
803A                    02565 	; 	BITMAP "21222222"
803A                    02566 	; 	BITMAP "22222222"
803A                    02567 	; 	BITMAP "22222222"
803A                    02568 	; 	BITMAP "22222222"
803A                    02569 	; 
803A                    02570 	; 	BITMAP "20011111"
803A                    02571 	; 	BITMAP "11111111"
803A                    02572 	; 	BITMAP "11222111"
803A                    02573 	; 	BITMAP "11222111"
803A                    02574 	; 	BITMAP "21222211"
803A                    02575 	; 	BITMAP "21222211"
803A                    02576 	; 	BITMAP "21222211"
803A                    02577 	; 	BITMAP "12222111"
803A                    02578 	; 
803A                    02579 	; 	BITMAP "10000222"
803A                    02580 	; 	BITMAP "10001221"
803A                    02581 	; 	BITMAP "10000221"
803A                    02582 	; 	BITMAP "10001121"
803A                    02583 	; 	BITMAP "11001121"
803A                    02584 	; 	BITMAP "11111121"
803A                    02585 	; 	BITMAP "11111121"
803A                    02586 	; 	BITMAP "11101111"
803A                    02587 	; 
803A                    02588 	; 	BITMAP "23333333"
803A                    02589 	; 	BITMAP "23333333"
803A                    02590 	; 	BITMAP "22333333"
803A                    02591 	; 	BITMAP "22333333"
803A                    02592 	; 	BITMAP "22333333"
803A                    02593 	; 	BITMAP "22233333"
803A                    02594 	; 	BITMAP "22233333"
803A                    02595 	; 	BITMAP "22223333"
803A                    02596 	; 
803A                    02597 	; 	BITMAP "22223333"
803A                    02598 	; 	BITMAP "22223333"
803A                    02599 	; 	BITMAP "22222333"
803A                    02600 	; 	BITMAP "22223333"
803A                    02601 	; 	BITMAP "22223333"
803A                    02602 	; 	BITMAP "22222333"
803A                    02603 	; 	BITMAP "22222333"
803A                    02604 	; 	BITMAP "22223333"
803A                    02605 	; 
803A                    02606 	; 	BITMAP "33232122"
803A                    02607 	; 	BITMAP "33322122"
803A                    02608 	; 	BITMAP "33332122"
803A                    02609 	; 	BITMAP "33333211"
803A                    02610 	; 	BITMAP "33333222"
803A                    02611 	; 	BITMAP "33333322"
803A                    02612 	; 	BITMAP "33333322"
803A                    02613 	; 	BITMAP "33333322"
803A                    02614 	; 
803A                    02615 	; 	BITMAP "22222112"
803A                    02616 	; 	BITMAP "22222122"
803A                    02617 	; 	BITMAP "22221122"
803A                    02618 	; 	BITMAP "12122222"
803A                    02619 	; 	BITMAP "22222222"
803A                    02620 	; 	BITMAP "22222222"
803A                    02621 	; 	BITMAP "22222222"
803A                    02622 	; 	BITMAP "22222222"
803A                    02623 	; 
803A                    02624 	; 	BITMAP "22221112"
803A                    02625 	; 	BITMAP "22211111"
803A                    02626 	; 	BITMAP "22211112"
803A                    02627 	; 	BITMAP "22211111"
803A                    02628 	; 	BITMAP "22211111"
803A                    02629 	; 	BITMAP "22221211"
803A                    02630 	; 	BITMAP "32222221"
803A                    02631 	; 	BITMAP "22111111"
803A                    02632 	; 
803A                    02633 	; 	BITMAP "22222222"
803A                    02634 	; 	BITMAP "22222222"
803A                    02635 	; 	BITMAP "22222232"
803A                    02636 	; 	BITMAP "22223332"
803A                    02637 	; 	BITMAP "12222332"
803A                    02638 	; 	BITMAP "12222222"
803A                    02639 	; 	BITMAP "12222222"
803A                    02640 	; 	BITMAP "22222222"
803A                    02641 	; 
803A                    02642 	; 	BITMAP "12222111"
803A                    02643 	; 	BITMAP "22222111"
803A                    02644 	; 	BITMAP "22222111"
803A                    02645 	; 	BITMAP "22222111"
803A                    02646 	; 	BITMAP "22222111"
803A                    02647 	; 	BITMAP "22222111"
803A                    02648 	; 	BITMAP "22221111"
803A                    02649 	; 	BITMAP "22221111"
803A                    02650 	; 
803A                    02651 	; 	BITMAP "11101211"
803A                    02652 	; 	BITMAP "11112222"
803A                    02653 	; 	BITMAP "11111112"
803A                    02654 	; 	BITMAP "11111222"
803A                    02655 	; 	BITMAP "11112222"
803A                    02656 	; 	BITMAP "11112222"
803A                    02657 	; 	BITMAP "11112222"
803A                    02658 	; 	BITMAP "11112222"
803A                    02659 	; 
803A                    02660 	; 	BITMAP "22223333"
803A                    02661 	; 	BITMAP "22222333"
803A                    02662 	; 	BITMAP "22222333"
803A                    02663 	; 	BITMAP "22222233"
803A                    02664 	; 	BITMAP "22222233"
803A                    02665 	; 	BITMAP "22222223"
803A                    02666 	; 	BITMAP "22222222"
803A                    02667 	; 	BITMAP "22222222"
803A                    02668 	; 
803A                    02669 	; 	BITMAP "33333333"
803A                    02670 	; 	BITMAP "33333333"
803A                    02671 	; 	BITMAP "33333333"
803A                    02672 	; 	BITMAP "33333333"
803A                    02673 	; 	BITMAP "33333333"
803A                    02674 	; 	BITMAP "33333333"
803A                    02675 	; 	BITMAP "33333333"
803A                    02676 	; 	BITMAP "22333333"
803A                    02677 	; 
803A                    02678 	; 	BITMAP "22223333"
803A                    02679 	; 	BITMAP "22222333"
803A                    02680 	; 	BITMAP "22222333"
803A                    02681 	; 	BITMAP "22222333"
803A                    02682 	; 	BITMAP "22222333"
803A                    02683 	; 	BITMAP "22222233"
803A                    02684 	; 	BITMAP "22222333"
803A                    02685 	; 	BITMAP "22222333"
803A                    02686 	; 
803A                    02687 	; 	BITMAP "33333332"
803A                    02688 	; 	BITMAP "33333333"
803A                    02689 	; 	BITMAP "33333333"
803A                    02690 	; 	BITMAP "33333333"
803A                    02691 	; 	BITMAP "33333333"
803A                    02692 	; 	BITMAP "33333333"
803A                    02693 	; 	BITMAP "33333333"
803A                    02694 	; 	BITMAP "33333333"
803A                    02695 	; 
803A                    02696 	; 	BITMAP "22222222"
803A                    02697 	; 	BITMAP "22222212"
803A                    02698 	; 	BITMAP "22222222"
803A                    02699 	; 	BITMAP "22222222"
803A                    02700 	; 	BITMAP "32222222"
803A                    02701 	; 	BITMAP "32222111"
803A                    02702 	; 	BITMAP "33222211"
803A                    02703 	; 	BITMAP "33222222"
803A                    02704 	; 
803A                    02705 	; 	BITMAP "22112222"
803A                    02706 	; 	BITMAP "22222222"
803A                    02707 	; 	BITMAP "22222222"
803A                    02708 	; 	BITMAP "22222222"
803A                    02709 	; 	BITMAP "22222211"
803A                    02710 	; 	BITMAP "11111111"
803A                    02711 	; 	BITMAP "11111111"
803A                    02712 	; 	BITMAP "11222222"
803A                    02713 	; 
803A                    02714 	; 	BITMAP "22222222"
803A                    02715 	; 	BITMAP "22222222"
803A                    02716 	; 	BITMAP "22222222"
803A                    02717 	; 	BITMAP "22111222"
803A                    02718 	; 	BITMAP "11112222"
803A                    02719 	; 	BITMAP "11222222"
803A                    02720 	; 	BITMAP "22222222"
803A                    02721 	; 	BITMAP "22222222"
803A                    02722 	; 
803A                    02723 	; 	BITMAP "22221211"
803A                    02724 	; 	BITMAP "22222211"
803A                    02725 	; 	BITMAP "22222211"
803A                    02726 	; 	BITMAP "22222211"
803A                    02727 	; 	BITMAP "22222211"
803A                    02728 	; 	BITMAP "22222211"
803A                    02729 	; 	BITMAP "22222211"
803A                    02730 	; 	BITMAP "22222111"
803A                    02731 	; 
803A                    02732 	; 	BITMAP "11112222"
803A                    02733 	; 	BITMAP "11112222"
803A                    02734 	; 	BITMAP "11112222"
803A                    02735 	; 	BITMAP "11112222"
803A                    02736 	; 	BITMAP "11112222"
803A                    02737 	; 	BITMAP "11112222"
803A                    02738 	; 	BITMAP "11112222"
803A                    02739 	; 	BITMAP "11101222"
803A                    02740 	; 
803A                    02741 	; 	BITMAP "22233333"
803A                    02742 	; 	BITMAP "22223333"
803A                    02743 	; 	BITMAP "22222233"
803A                    02744 	; 	BITMAP "22222222"
803A                    02745 	; 	BITMAP "22222222"
803A                    02746 	; 	BITMAP "22222222"
803A                    02747 	; 	BITMAP "22222222"
803A                    02748 	; 	BITMAP "22222222"
803A                    02749 	; 
803A                    02750 	; 	BITMAP "33333333"
803A                    02751 	; 	BITMAP "33333333"
803A                    02752 	; 	BITMAP "33333333"
803A                    02753 	; 	BITMAP "33333333"
803A                    02754 	; 	BITMAP "22333333"
803A                    02755 	; 	BITMAP "22223333"
803A                    02756 	; 	BITMAP "22222333"
803A                    02757 	; 	BITMAP "22222233"
803A                    02758 	; 
803A                    02759 	; 	BITMAP "22222333"
803A                    02760 	; 	BITMAP "22222333"
803A                    02761 	; 	BITMAP "22222233"
803A                    02762 	; 	BITMAP "22222333"
803A                    02763 	; 	BITMAP "22222333"
803A                    02764 	; 	BITMAP "22222333"
803A                    02765 	; 	BITMAP "22222333"
803A                    02766 	; 	BITMAP "22222233"
803A                    02767 	; 
803A                    02768 	; 	BITMAP "33322222"
803A                    02769 	; 	BITMAP "33322222"
803A                    02770 	; 	BITMAP "33332222"
803A                    02771 	; 	BITMAP "33332122"
803A                    02772 	; 	BITMAP "33333222"
803A                    02773 	; 	BITMAP "33333212"
803A                    02774 	; 	BITMAP "33333322"
803A                    02775 	; 	BITMAP "33333332"
803A                    02776 	; 
803A                    02777 	; 	BITMAP "22222222"
803A                    02778 	; 	BITMAP "22222222"
803A                    02779 	; 	BITMAP "22222222"
803A                    02780 	; 	BITMAP "22222222"
803A                    02781 	; 	BITMAP "22222112"
803A                    02782 	; 	BITMAP "22221112"
803A                    02783 	; 	BITMAP "22211111"
803A                    02784 	; 	BITMAP "22211111"
803A                    02785 	; 
803A                    02786 	; 	BITMAP "22222111"
803A                    02787 	; 	BITMAP "22221111"
803A                    02788 	; 	BITMAP "22211111"
803A                    02789 	; 	BITMAP "22111111"
803A                    02790 	; 	BITMAP "21111111"
803A                    02791 	; 	BITMAP "11111112"
803A                    02792 	; 	BITMAP "11211132"
803A                    02793 	; 	BITMAP "11112321"
803A                    02794 	; 
803A                    02795 	; 	BITMAP "11001222"
803A                    02796 	; 	BITMAP "11001222"
803A                    02797 	; 	BITMAP "10101222"
803A                    02798 	; 	BITMAP "11102212"
803A                    02799 	; 	BITMAP "21112112"
803A                    02800 	; 	BITMAP "11022022"
803A                    02801 	; 	BITMAP "01132022"
803A                    02802 	; 	BITMAP "10231132"
803A                    02803 	; 
803A                    02804 	; 	BITMAP "22222222"
803A                    02805 	; 	BITMAP "22222222"
803A                    02806 	; 	BITMAP "22222222"
803A                    02807 	; 	BITMAP "22222222"
803A                    02808 	; 	BITMAP "22222222"
803A                    02809 	; 	BITMAP "22222222"
803A                    02810 	; 	BITMAP "12222222"
803A                    02811 	; 	BITMAP "00122222"
803A                    02812 	; 
803A                    02813 	; 	BITMAP "22222333"
803A                    02814 	; 	BITMAP "22222233"
803A                    02815 	; 	BITMAP "22222233"
803A                    02816 	; 	BITMAP "22222333"
803A                    02817 	; 	BITMAP "22222233"
803A                    02818 	; 	BITMAP "22222233"
803A                    02819 	; 	BITMAP "22222233"
803A                    02820 	; 	BITMAP "22222233"
803A                    02821 	; 
803A                    02822 	; 	BITMAP "33333333"
803A                    02823 	; 	BITMAP "33333333"
803A                    02824 	; 	BITMAP "33333333"
803A                    02825 	; 	BITMAP "33333333"
803A                    02826 	; 	BITMAP "33333333"
803A                    02827 	; 	BITMAP "33333321"
803A                    02828 	; 	BITMAP "33333100"
803A                    02829 	; 	BITMAP "33321010"
803A                    02830 	; 
803A                    02831 	; 	BITMAP "33333332"
803A                    02832 	; 	BITMAP "33333211"
803A                    02833 	; 	BITMAP "33321002"
803A                    02834 	; 	BITMAP "32100112"
803A                    02835 	; 	BITMAP "20011122"
803A                    02836 	; 	BITMAP "00111123"
803A                    02837 	; 	BITMAP "10110232"
803A                    02838 	; 	BITMAP "01111322"
803A                    02839 	; 
803A                    02840 	; 	BITMAP "22222222"
803A                    02841 	; 	BITMAP "22222222"
803A                    02842 	; 	BITMAP "22111111"
803A                    02843 	; 	BITMAP "22111111"
803A                    02844 	; 	BITMAP "22122222"
803A                    02845 	; 	BITMAP "22112222"
803A                    02846 	; 	BITMAP "21012222"
803A                    02847 	; 	BITMAP "21012222"
803A                    02848 	; 
803A                    02849 	; 	BITMAP "22111111"
803A                    02850 	; 	BITMAP "21111111"
803A                    02851 	; 	BITMAP "11111222"
803A                    02852 	; 	BITMAP "12222222"
803A                    02853 	; 	BITMAP "22222222"
803A                    02854 	; 	BITMAP "22222222"
803A                    02855 	; 	BITMAP "22222223"
803A                    02856 	; 	BITMAP "22222233"
803A                    02857 	; 
803A                    02858 	; 	BITMAP "11223311"
803A                    02859 	; 	BITMAP "22223201"
803A                    02860 	; 	BITMAP "22232110"
803A                    02861 	; 	BITMAP "22331102"
803A                    02862 	; 	BITMAP "23321113"
803A                    02863 	; 	BITMAP "33211023"
803A                    02864 	; 	BITMAP "33110233"
803A                    02865 	; 	BITMAP "32011332"
803A                    02866 	; 
803A                    02867 	; 	BITMAP "02320231"
803A                    02868 	; 	BITMAP "13311320"
803A                    02869 	; 	BITMAP "23202310"
803A                    02870 	; 	BITMAP "33013201"
803A                    02871 	; 	BITMAP "31033101"
803A                    02872 	; 	BITMAP "20232010"
803A                    02873 	; 	BITMAP "11331010"
803A                    02874 	; 	BITMAP "02320110"
803A                    02875 	; 
803A                    02876 	; 	BITMAP "00012222"
803A                    02877 	; 	BITMAP "00012222"
803A                    02878 	; 	BITMAP "00000112"
803A                    02879 	; 	BITMAP "00000001"
803A                    02880 	; 	BITMAP "00000000"
803A                    02881 	; 	BITMAP "11000000"
803A                    02882 	; 	BITMAP "00000000"
803A                    02883 	; 	BITMAP "00000000"
803A                    02884 	; 
803A                    02885 	; 	BITMAP "22222222"
803A                    02886 	; 	BITMAP "22222222"
803A                    02887 	; 	BITMAP "22222222"
803A                    02888 	; 	BITMAP "12222222"
803A                    02889 	; 	BITMAP "01222222"
803A                    02890 	; 	BITMAP "00122222"
803A                    02891 	; 	BITMAP "00012222"
803A                    02892 	; 	BITMAP "00000112"
803A                    02893 	; 
803A                    02894 	; 	BITMAP "22222223"
803A                    02895 	; 	BITMAP "22222223"
803A                    02896 	; 	BITMAP "22222222"
803A                    02897 	; 	BITMAP "22222222"
803A                    02898 	; 	BITMAP "22222222"
803A                    02899 	; 	BITMAP "22222222"
803A                    02900 	; 	BITMAP "22222222"
803A                    02901 	; 	BITMAP "22222222"
803A                    02902 	; 
803A                    02903 	; 	BITMAP "33333333"
803A                    02904 	; 	BITMAP "33333333"
803A                    02905 	; 	BITMAP "33333333"
803A                    02906 	; 	BITMAP "33333331"
803A                    02907 	; 	BITMAP "33333210"
803A                    02908 	; 	BITMAP "23333111"
803A                    02909 	; 	BITMAP "22232111"
803A                    02910 	; 	BITMAP "22331110"
803A                    02911 	; 
803A                    02912 	; 	BITMAP "33200100"
803A                    02913 	; 	BITMAP "32011001"
803A                    02914 	; 	BITMAP "10110011"
803A                    02915 	; 	BITMAP "01110011"
803A                    02916 	; 	BITMAP "11100111"
803A                    02917 	; 	BITMAP "11101110"
803A                    02918 	; 	BITMAP "01011111"
803A                    02919 	; 	BITMAP "11111101"
803A                    02920 	; 
803A                    02921 	; 	BITMAP "11102322"
803A                    02922 	; 	BITMAP "11112322"
803A                    02923 	; 	BITMAP "01123322"
803A                    02924 	; 	BITMAP "11123222"
803A                    02925 	; 	BITMAP "11132222"
803A                    02926 	; 	BITMAP "21022222"
803A                    02927 	; 	BITMAP "21122222"
803A                    02928 	; 	BITMAP "20022122"
803A                    02929 	; 
803A                    02930 	; 	BITMAP "21012222"
803A                    02931 	; 	BITMAP "21012222"
803A                    02932 	; 	BITMAP "21011222"
803A                    02933 	; 	BITMAP "21011222"
803A                    02934 	; 	BITMAP "21011222"
803A                    02935 	; 	BITMAP "11011222"
803A                    02936 	; 	BITMAP "22011222"
803A                    02937 	; 	BITMAP "22101232"
803A                    02938 	; 
803A                    02939 	; 	BITMAP "22222333"
803A                    02940 	; 	BITMAP "22223333"
803A                    02941 	; 	BITMAP "22233332"
803A                    02942 	; 	BITMAP "22333331"
803A                    02943 	; 	BITMAP "23333311"
803A                    02944 	; 	BITMAP "22223211"
803A                    02945 	; 	BITMAP "22222110"
803A                    02946 	; 	BITMAP "22221112"
803A                    02947 	; 
803A                    02948 	; 	BITMAP "21102320"
803A                    02949 	; 	BITMAP "11023310"
803A                    02950 	; 	BITMAP "01133202"
803A                    02951 	; 	BITMAP "10232013"
803A                    02952 	; 	BITMAP "02331023"
803A                    02953 	; 	BITMAP "13320233"
803A                    02954 	; 	BITMAP "23301331"
803A                    02955 	; 	BITMAP "33102320"
803A                    02956 	; 
803A                    02957 	; 	BITMAP "13201001"
803A                    02958 	; 	BITMAP "33101000"
803A                    02959 	; 	BITMAP "32011000"
803A                    02960 	; 	BITMAP "31010000"
803A                    02961 	; 	BITMAP "20100010"
803A                    02962 	; 	BITMAP "01100110"
803A                    02963 	; 	BITMAP "01000000"
803A                    02964 	; 	BITMAP "11001100"
803A                    02965 	; 
803A                    02966 	; 	BITMAP "00000000"
803A                    02967 	; 	BITMAP "00000000"
803A                    02968 	; 	BITMAP "00000000"
803A                    02969 	; 	BITMAP "00000000"
803A                    02970 	; 	BITMAP "00000000"
803A                    02971 	; 	BITMAP "00000000"
803A                    02972 	; 	BITMAP "00000000"
803A                    02973 	; 	BITMAP "00000000"
803A                    02974 	; 
803A                    02975 	; 	BITMAP "00000001"
803A                    02976 	; 	BITMAP "00000000"
803A                    02977 	; 	BITMAP "00000000"
803A                    02978 	; 	BITMAP "00000000"
803A                    02979 	; 	BITMAP "00000000"
803A                    02980 	; 	BITMAP "00000000"
803A                    02981 	; 	BITMAP "00000000"
803A                    02982 	; 	BITMAP "00000000"
803A                    02983 	; 
803A                    02984 	; 	BITMAP "22222222"
803A                    02985 	; 	BITMAP "01222222"
803A                    02986 	; 	BITMAP "00122222"
803A                    02987 	; 	BITMAP "00012222"
803A                    02988 	; 	BITMAP "00001222"
803A                    02989 	; 	BITMAP "00000122"
803A                    02990 	; 	BITMAP "00000112"
803A                    02991 	; 	BITMAP "00000000"
803A                    02992 	; 
803A                    02993 	; 	BITMAP "22222222"
803A                    02994 	; 	BITMAP "22222222"
803A                    02995 	; 	BITMAP "22222222"
803A                    02996 	; 	BITMAP "22222222"
803A                    02997 	; 	BITMAP "22222222"
803A                    02998 	; 	BITMAP "22222222"
803A                    02999 	; 	BITMAP "22222222"
803A                    03000 	; 	BITMAP "11222222"
803A                    03001 	; 
803A                    03002 	; 	BITMAP "22321110"
803A                    03003 	; 	BITMAP "22321100"
803A                    03004 	; 	BITMAP "22321100"
803A                    03005 	; 	BITMAP "22311100"
803A                    03006 	; 	BITMAP "23311101"
803A                    03007 	; 	BITMAP "23310101"
803A                    03008 	; 	BITMAP "23310111"
803A                    03009 	; 	BITMAP "23320111"
803A                    03010 	; 
803A                    03011 	; 	BITMAP "10111102"
803A                    03012 	; 	BITMAP "01111112"
803A                    03013 	; 	BITMAP "11111112"
803A                    03014 	; 	BITMAP "11111112"
803A                    03015 	; 	BITMAP "11111022"
803A                    03016 	; 	BITMAP "11111121"
803A                    03017 	; 	BITMAP "11111121"
803A                    03018 	; 	BITMAP "11111111"
803A                    03019 	; 
803A                    03020 	; 	BITMAP "20023112"
803A                    03021 	; 	BITMAP "10013212"
803A                    03022 	; 	BITMAP "10001222"
803A                    03023 	; 	BITMAP "00001222"
803A                    03024 	; 	BITMAP "00001222"
803A                    03025 	; 	BITMAP "00001222"
803A                    03026 	; 	BITMAP "00012223"
803A                    03027 	; 	BITMAP "00012233"
803A                    03028 	; 
803A                    03029 	; 	BITMAP "22201322"
803A                    03030 	; 	BITMAP "22201322"
803A                    03031 	; 	BITMAP "22222223"
803A                    03032 	; 	BITMAP "22222333"
803A                    03033 	; 	BITMAP "22222332"
803A                    03034 	; 	BITMAP "32222322"
803A                    03035 	; 	BITMAP "33212221"
803A                    03036 	; 	BITMAP "33202101"
803A                    03037 	; 
803A                    03038 	; 	BITMAP "22221113"
803A                    03039 	; 	BITMAP "22211023"
803A                    03040 	; 	BITMAP "22111233"
803A                    03041 	; 	BITMAP "21111332"
803A                    03042 	; 	BITMAP "11103331"
803A                    03043 	; 	BITMAP "11023310"
803A                    03044 	; 	BITMAP "10233201"
803A                    03045 	; 	BITMAP "02332013"
803A                    03046 	; 
803A                    03047 	; 	BITMAP "32013310"
803A                    03048 	; 	BITMAP "31133201"
803A                    03049 	; 	BITMAP "20233011"
803A                    03050 	; 	BITMAP "01331011"
803A                    03051 	; 	BITMAP "03320111"
803A                    03052 	; 	BITMAP "23311110"
803A                    03053 	; 	BITMAP "33211000"
803A                    03054 	; 	BITMAP "32111111"
803A                    03055 	; 
803A                    03056 	; 	BITMAP "11111000"
803A                    03057 	; 	BITMAP "11111000"
803A                    03058 	; 	BITMAP "11110000"
803A                    03059 	; 	BITMAP "11000000"
803A                    03060 	; 	BITMAP "00000000"
803A                    03061 	; 	BITMAP "00000000"
803A                    03062 	; 	BITMAP "00000001"
803A                    03063 	; 	BITMAP "00000001"
803A                    03064 	; 
803A                    03065 	; 	BITMAP "00000000"
803A                    03066 	; 	BITMAP "00000000"
803A                    03067 	; 	BITMAP "00000000"
803A                    03068 	; 	BITMAP "00000000"
803A                    03069 	; 	BITMAP "11000000"
803A                    03070 	; 	BITMAP "11000000"
803A                    03071 	; 	BITMAP "11100000"
803A                    03072 	; 	BITMAP "11100000"
803A                    03073 	; 
803A                    03074 	; 	BITMAP "00012222"
803A                    03075 	; 	BITMAP "00000122"
803A                    03076 	; 	BITMAP "00000002"
803A                    03077 	; 	BITMAP "00000000"
803A                    03078 	; 	BITMAP "00000000"
803A                    03079 	; 	BITMAP "00000000"
803A                    03080 	; 	BITMAP "00000000"
803A                    03081 	; 	BITMAP "00000000"
803A                    03082 	; 
803A                    03083 	; 	BITMAP "23310111"
803A                    03084 	; 	BITMAP "23301111"
803A                    03085 	; 	BITMAP "23201111"
803A                    03086 	; 	BITMAP "23111111"
803A                    03087 	; 	BITMAP "22111111"
803A                    03088 	; 	BITMAP "22011111"
803A                    03089 	; 	BITMAP "21111111"
803A                    03090 	; 	BITMAP "21111111"
803A                    03091 	; 
803A                    03092 	; 	BITMAP "11111111"
803A                    03093 	; 	BITMAP "11111110"
803A                    03094 	; 	BITMAP "11111110"
803A                    03095 	; 	BITMAP "11101110"
803A                    03096 	; 	BITMAP "11101110"
803A                    03097 	; 	BITMAP "11011100"
803A                    03098 	; 	BITMAP "11011100"
803A                    03099 	; 	BITMAP "10011100"
803A                    03100 	; 
803A                    03101 	; 	BITMAP "00012333"
803A                    03102 	; 	BITMAP "00123333"
803A                    03103 	; 	BITMAP "00123333"
803A                    03104 	; 	BITMAP "01223333"
803A                    03105 	; 	BITMAP "01223333"
803A                    03106 	; 	BITMAP "01233333"
803A                    03107 	; 	BITMAP "12233333"
803A                    03108 	; 	BITMAP "12333332"
803A                    03109 	; 
803A                    03110 	; 	BITMAP "33201110"
803A                    03111 	; 	BITMAP "33201102"
803A                    03112 	; 	BITMAP "33111123"
803A                    03113 	; 	BITMAP "32111122"
803A                    03114 	; 	BITMAP "21111100"
803A                    03115 	; 	BITMAP "21111011"
803A                    03116 	; 	BITMAP "11123201"
803A                    03117 	; 	BITMAP "11133311"
803A                    03118 	; 
803A                    03119 	; 	BITMAP "23331122"
803A                    03120 	; 	BITMAP "33201110"
803A                    03121 	; 	BITMAP "32111111"
803A                    03122 	; 	BITMAP "11111111"
803A                    03123 	; 	BITMAP "11111111"
803A                    03124 	; 	BITMAP "11111111"
803A                    03125 	; 	BITMAP "11111111"
803A                    03126 	; 	BITMAP "11111111"
803A                    03127 	; 
803A                    03128 	; 	BITMAP "10111111"
803A                    03129 	; 	BITMAP "11111111"
803A                    03130 	; 	BITMAP "11101111"
803A                    03131 	; 	BITMAP "11111111"
803A                    03132 	; 	BITMAP "11111111"
803A                    03133 	; 	BITMAP "11111111"
803A                    03134 	; 	BITMAP "11111111"
803A                    03135 	; 	BITMAP "11111111"
803A                    03136 	; 
803A                    03137 	; 	BITMAP "10000001"
803A                    03138 	; 	BITMAP "11100001"
803A                    03139 	; 	BITMAP "11111001"
803A                    03140 	; 	BITMAP "11111001"
803A                    03141 	; 	BITMAP "11111001"
803A                    03142 	; 	BITMAP "11111011"
803A                    03143 	; 	BITMAP "11110011"
803A                    03144 	; 	BITMAP "11100011"
803A                    03145 	; 
803A                    03146 	; 	BITMAP "11110000"
803A                    03147 	; 	BITMAP "11110000"
803A                    03148 	; 	BITMAP "11110000"
803A                    03149 	; 	BITMAP "11111000"
803A                    03150 	; 	BITMAP "11111000"
803A                    03151 	; 	BITMAP "11111000"
803A                    03152 	; 	BITMAP "11111100"
803A                    03153 	; 	BITMAP "11111100"
803A                    03154 	; 
803A                    03155 	; 	BITMAP "00000000"
803A                    03156 	; 	BITMAP "00000001"
803A                    03157 	; 	BITMAP "00000012"
803A                    03158 	; 	BITMAP "00000222"
803A                    03159 	; 	BITMAP "00002322"
803A                    03160 	; 	BITMAP "00013332"
803A                    03161 	; 	BITMAP "00023333"
803A                    03162 	; 	BITMAP "00133333"
803A                    03163 	; 
803A                    03164 	; 	BITMAP "22222222"
803A                    03165 	; 	BITMAP "22222222"
803A                    03166 	; 	BITMAP "22222222"
803A                    03167 	; 	BITMAP "22222222"
803A                    03168 	; 	BITMAP "22222221"
803A                    03169 	; 	BITMAP "22222221"
803A                    03170 	; 	BITMAP "22222210"
803A                    03171 	; 	BITMAP "22222211"
803A                    03172 	; 
803A                    03173 	; 	BITMAP "21111111"
803A                    03174 	; 	BITMAP "11111111"
803A                    03175 	; 	BITMAP "11111111"
803A                    03176 	; 	BITMAP "11111111"
803A                    03177 	; 	BITMAP "11111111"
803A                    03178 	; 	BITMAP "11111111"
803A                    03179 	; 	BITMAP "11111110"
803A                    03180 	; 	BITMAP "11111110"
803A                    03181 	; 
803A                    03182 	; 	BITMAP "10111001"
803A                    03183 	; 	BITMAP "11111001"
803A                    03184 	; 	BITMAP "11111012"
803A                    03185 	; 	BITMAP "11110012"
803A                    03186 	; 	BITMAP "11110122"
803A                    03187 	; 	BITMAP "11110122"
803A                    03188 	; 	BITMAP "11101222"
803A                    03189 	; 	BITMAP "11001123"
803A                    03190 	; 
803A                    03191 	; 	BITMAP "23333222"
803A                    03192 	; 	BITMAP "23332232"
803A                    03193 	; 	BITMAP "23223331"
803A                    03194 	; 	BITMAP "32233321"
803A                    03195 	; 	BITMAP "22333321"
803A                    03196 	; 	BITMAP "23333321"
803A                    03197 	; 	BITMAP "33332211"
803A                    03198 	; 	BITMAP "33332211"
803A                    03199 	; 
803A                    03200 	; 	BITMAP "11133311"
803A                    03201 	; 	BITMAP "11112101"
803A                    03202 	; 	BITMAP "11110111"
803A                    03203 	; 	BITMAP "11111111"
803A                    03204 	; 	BITMAP "11111111"
803A                    03205 	; 	BITMAP "11111111"
803A                    03206 	; 	BITMAP "11111111"
803A                    03207 	; 	BITMAP "11111111"
803A                    03208 	; 
803A                    03209 	; 	BITMAP "11111111"
803A                    03210 	; 	BITMAP "11111111"
803A                    03211 	; 	BITMAP "11111111"
803A                    03212 	; 	BITMAP "11110111"
803A                    03213 	; 	BITMAP "11100111"
803A                    03214 	; 	BITMAP "11101111"
803A                    03215 	; 	BITMAP "11001111"
803A                    03216 	; 	BITMAP "10011111"
803A                    03217 	; 
803A                    03218 	; 	BITMAP "11111111"
803A                    03219 	; 	BITMAP "11111111"
803A                    03220 	; 	BITMAP "11111111"
803A                    03221 	; 	BITMAP "11111111"
803A                    03222 	; 	BITMAP "11111111"
803A                    03223 	; 	BITMAP "11111111"
803A                    03224 	; 	BITMAP "11111111"
803A                    03225 	; 	BITMAP "11111111"
803A                    03226 	; 
803A                    03227 	; 	BITMAP "11100011"
803A                    03228 	; 	BITMAP "11000111"
803A                    03229 	; 	BITMAP "11000111"
803A                    03230 	; 	BITMAP "11000111"
803A                    03231 	; 	BITMAP "11000111"
803A                    03232 	; 	BITMAP "11001111"
803A                    03233 	; 	BITMAP "10001111"
803A                    03234 	; 	BITMAP "10001111"
803A                    03235 	; 
803A                    03236 	; 	BITMAP "11111110"
803A                    03237 	; 	BITMAP "11111110"
803A                    03238 	; 	BITMAP "11111111"
803A                    03239 	; 	BITMAP "11111111"
803A                    03240 	; 	BITMAP "11111111"
803A                    03241 	; 	BITMAP "11111111"
803A                    03242 	; 	BITMAP "11111111"
803A                    03243 	; 	BITMAP "11111111"
803A                    03244 	; 
803A                    03245 	; 	BITMAP "00000000"
803A                    03246 	; 	BITMAP "00000000"
803A                    03247 	; 	BITMAP "00000000"
803A                    03248 	; 	BITMAP "00000000"
803A                    03249 	; 	BITMAP "10000000"
803A                    03250 	; 	BITMAP "10000000"
803A                    03251 	; 	BITMAP "10000000"
803A                    03252 	; 	BITMAP "11000000"
803A                    03253 	; 
803A                    03254 	; 	BITMAP "00000000"
803A                    03255 	; 	BITMAP "00000000"
803A                    03256 	; 	BITMAP "00000000"
803A                    03257 	; 	BITMAP "00000000"
803A                    03258 	; 	BITMAP "00000000"
803A                    03259 	; 	BITMAP "00100000"
803A                    03260 	; 	BITMAP "00100001"
803A                    03261 	; 	BITMAP "00101102"
803A                    03262 	; 
803A                    03263 	; 	BITMAP "00233333"
803A                    03264 	; 	BITMAP "01333323"
803A                    03265 	; 	BITMAP "02333323"
803A                    03266 	; 	BITMAP "13333223"
803A                    03267 	; 	BITMAP "23333223"
803A                    03268 	; 	BITMAP "23333223"
803A                    03269 	; 	BITMAP "33332233"
803A                    03270 	; 	BITMAP "33332233"
803A                    03271 	; 
803A                    03272 	; 
803A                    03273 	; 	' Width = 12, height = 16
803A                    03274 	; image_pattern:
803A                    03275 CVB_IMAGE_PATTERN:
803A                    03276 	; 	DATA BYTE $80,$81,$81,$81,$82,$83,$84,$84,$84,$84,$84,$84
803A  8081818182838484  03277 	DB $80,$81,$81,$81,$82,$83,$84,$84
8042  84848484          03278 	DB $84,$84,$84,$84
8046                    03279 	; 	DATA BYTE $81,$81,$81,$85,$86,$84,$84,$84,$84,$84,$84,$84
8046  8181818586848484  03280 	DB $81,$81,$81,$85,$86,$84,$84,$84
804E  84848484          03281 	DB $84,$84,$84,$84
8052                    03282 	; 	DATA BYTE $81,$81,$87,$88,$84,$84,$84,$84,$84,$84,$84,$84
8052  8181878884848484  03283 	DB $81,$81,$87,$88,$84,$84,$84,$84
805A  84848484          03284 	DB $84,$84,$84,$84
805E                    03285 	; 	DATA BYTE $81,$81,$89,$8a,$8b,$8c,$84,$84,$84,$84,$84,$84
805E  8181898A8B8C8484  03286 	DB $81,$81,$89,$8A,$8B,$8C,$84,$84
8066  84848484          03287 	DB $84,$84,$84,$84
806A                    03288 	; 	DATA BYTE $81,$8d,$8e,$8f,$90,$91,$92,$93,$84,$84,$84,$84
806A  818D8E8F90919293  03289 	DB $81,$8D,$8E,$8F,$90,$91,$92,$93
8072  84848484          03290 	DB $84,$84,$84,$84
8076                    03291 	; 	DATA BYTE $81,$94,$95,$96,$81,$97,$98,$99,$84,$84,$84,$84
8076  8194959681979899  03292 	DB $81,$94,$95,$96,$81,$97,$98,$99
807E  84848484          03293 	DB $84,$84,$84,$84
8082                    03294 	; 	DATA BYTE $9a,$84,$9b,$9c,$9d,$9e,$9f,$a0,$a1,$a2,$84,$84
8082  9A849B9C9D9E9FA0  03295 	DB $9A,$84,$9B,$9C,$9D,$9E,$9F,$A0
808A  A1A28484          03296 	DB $A1,$A2,$84,$84
808E                    03297 	; 	DATA BYTE $a3,$84,$a4,$a5,$a6,$a7,$a8,$a9,$81,$aa,$84,$84
808E  A384A4A5A6A7A8A9  03298 	DB $A3,$84,$A4,$A5,$A6,$A7,$A8,$A9
8096  81AA8484          03299 	DB $81,$AA,$84,$84
809A                    03300 	; 	DATA BYTE $ab,$84,$ac,$ad,$ae,$af,$b0,$b1,$81,$b2,$b3,$84
809A  AB84ACADAEAFB0B1  03301 	DB $AB,$84,$AC,$AD,$AE,$AF,$B0,$B1
80A2  81B2B384          03302 	DB $81,$B2,$B3,$84
80A6                    03303 	; 	DATA BYTE $b4,$84,$b5,$b6,$b7,$b8,$b9,$ba,$81,$81,$bb,$bc
80A6  B484B5B6B7B8B9BA  03304 	DB $B4,$84,$B5,$B6,$B7,$B8,$B9,$BA
80AE  8181BBBC          03305 	DB $81,$81,$BB,$BC
80B2                    03306 	; 	DATA BYTE $bd,$84,$84,$be,$81,$bf,$c0,$c1,$c2,$81,$81,$81
80B2  BD8484BE81BFC0C1  03307 	DB $BD,$84,$84,$BE,$81,$BF,$C0,$C1
80BA  C2818181          03308 	DB $C2,$81,$81,$81
80BE                    03309 	; 	DATA BYTE $c3,$84,$c4,$c5,$c6,$c7,$c8,$c9,$ca,$cb,$81,$81
80BE  C384C4C5C6C7C8C9  03310 	DB $C3,$84,$C4,$C5,$C6,$C7,$C8,$C9
80C6  CACB8181          03311 	DB $CA,$CB,$81,$81
80CA                    03312 	; 	DATA BYTE $cc,$cd,$ce,$cf,$d0,$d1,$d2,$d3,$d4,$d5,$d6,$d7
80CA  CCCDCECFD0D1D2D3  03313 	DB $CC,$CD,$CE,$CF,$D0,$D1,$D2,$D3
80D2  D4D5D6D7          03314 	DB $D4,$D5,$D6,$D7
80D6                    03315 	; 	DATA BYTE $81,$d8,$d9,$da,$db,$dc,$dd,$de,$df,$d4,$d4,$e0
80D6  81D8D9DADBDCDDDE  03316 	DB $81,$D8,$D9,$DA,$DB,$DC,$DD,$DE
80DE  DFD4D4E0          03317 	DB $DF,$D4,$D4,$E0
80E2                    03318 	; 	DATA BYTE $81,$e1,$e2,$e3,$e4,$e5,$e6,$e7,$e8,$d4,$d4,$e9
80E2  81E1E2E3E4E5E6E7  03319 	DB $81,$E1,$E2,$E3,$E4,$E5,$E6,$E7
80EA  E8D4D4E9          03320 	DB $E8,$D4,$D4,$E9
80EE                    03321 	; 	DATA BYTE $ea,$eb,$ec,$ed,$ee,$ef,$f0,$f1,$f2,$f3,$f4,$f5
80EE  EAEBECEDEEEFF0F1  03322 	DB $EA,$EB,$EC,$ED,$EE,$EF,$F0,$F1
80F6  F2F3F4F5          03323 	DB $F2,$F3,$F4,$F5
80FA                    03324 BANK_2_FREE:	EQU $BFFF-$
80FA  FFFFFFFFFFFFFFFF  03325 	TIMES $BFFF-$ DB $FF
BFFF  01                03326 	DB $01
C000                    03327 ROM_END:
C000                    03328     IF CVBASIC_BANK_SWITCHING
                        03329 	FORG CVBASIC_BANK_ROM_SIZE*1024+16-6	; Go to final of ROM minus vectors
                        03330    ELSE
                        03331 	TIMES $FFFA-$ DB $FF
                        03332     ENDIF
                        03333 
0000  E3C2              03334 	DW NMI_HANDLER
0002  2BC9              03335 	DW START
0004  E2C2              03336 	DW IRQ_HANDLER	
0006                    03337 
                        03338 FORG $34010
                        03339 
8000                    03340 ORG $8000
8000                    03341 
8000                    03342 ; CHR data
8000  0000000000000000  03343 	DB $00,$00,$00,$00,$00,$00,$00,$00
8008  0000000000000000  03344 	DB $00,$00,$00,$00,$00,$00,$00,$00
8010  0000000000000000  03345 	DB $00,$00,$00,$00,$00,$00,$00,$00
8018  0000000000000000  03346 	DB $00,$00,$00,$00,$00,$00,$00,$00
8020  0000000000000000  03347 	DB $00,$00,$00,$00,$00,$00,$00,$00
8028  0000000000000000  03348 	DB $00,$00,$00,$00,$00,$00,$00,$00
8030  0000000000000000  03349 	DB $00,$00,$00,$00,$00,$00,$00,$00
8038  0000000000000000  03350 	DB $00,$00,$00,$00,$00,$00,$00,$00
8040  0000000000000000  03351 	DB $00,$00,$00,$00,$00,$00,$00,$00
8048  0000000000000000  03352 	DB $00,$00,$00,$00,$00,$00,$00,$00
8050  0000000000000000  03353 	DB $00,$00,$00,$00,$00,$00,$00,$00
8058  0000000000000000  03354 	DB $00,$00,$00,$00,$00,$00,$00,$00
8060  0000000000000000  03355 	DB $00,$00,$00,$00,$00,$00,$00,$00
8068  0000000000000000  03356 	DB $00,$00,$00,$00,$00,$00,$00,$00
8070  0000000000000000  03357 	DB $00,$00,$00,$00,$00,$00,$00,$00
8078  0000000000000000  03358 	DB $00,$00,$00,$00,$00,$00,$00,$00
8080  0000000000000000  03359 	DB $00,$00,$00,$00,$00,$00,$00,$00
8088  0000000000000000  03360 	DB $00,$00,$00,$00,$00,$00,$00,$00
8090  0000000000000000  03361 	DB $00,$00,$00,$00,$00,$00,$00,$00
8098  0000000000000000  03362 	DB $00,$00,$00,$00,$00,$00,$00,$00
80A0  0000000000000000  03363 	DB $00,$00,$00,$00,$00,$00,$00,$00
80A8  0000000000000000  03364 	DB $00,$00,$00,$00,$00,$00,$00,$00
80B0  0000000000000000  03365 	DB $00,$00,$00,$00,$00,$00,$00,$00
80B8  0000000000000000  03366 	DB $00,$00,$00,$00,$00,$00,$00,$00
80C0  0000000000000000  03367 	DB $00,$00,$00,$00,$00,$00,$00,$00
80C8  0000000000000000  03368 	DB $00,$00,$00,$00,$00,$00,$00,$00
80D0  0000000000000000  03369 	DB $00,$00,$00,$00,$00,$00,$00,$00
80D8  0000000000000000  03370 	DB $00,$00,$00,$00,$00,$00,$00,$00
80E0  0000000000000000  03371 	DB $00,$00,$00,$00,$00,$00,$00,$00
80E8  0000000000000000  03372 	DB $00,$00,$00,$00,$00,$00,$00,$00
80F0  0000000000000000  03373 	DB $00,$00,$00,$00,$00,$00,$00,$00
80F8  0000000000000000  03374 	DB $00,$00,$00,$00,$00,$00,$00,$00
8100  0000000000000000  03375 	DB $00,$00,$00,$00,$00,$00,$00,$00
8108  0000000000000000  03376 	DB $00,$00,$00,$00,$00,$00,$00,$00
8110  0000000000000000  03377 	DB $00,$00,$00,$00,$00,$00,$00,$00
8118  0000000000000000  03378 	DB $00,$00,$00,$00,$00,$00,$00,$00
8120  0000000000000000  03379 	DB $00,$00,$00,$00,$00,$00,$00,$00
8128  0000000000000000  03380 	DB $00,$00,$00,$00,$00,$00,$00,$00
8130  0000000000000000  03381 	DB $00,$00,$00,$00,$00,$00,$00,$00
8138  0000000000000000  03382 	DB $00,$00,$00,$00,$00,$00,$00,$00
8140  0000000000000000  03383 	DB $00,$00,$00,$00,$00,$00,$00,$00
8148  0000000000000000  03384 	DB $00,$00,$00,$00,$00,$00,$00,$00
8150  0000000000000000  03385 	DB $00,$00,$00,$00,$00,$00,$00,$00
8158  0000000000000000  03386 	DB $00,$00,$00,$00,$00,$00,$00,$00
8160  0000000000000000  03387 	DB $00,$00,$00,$00,$00,$00,$00,$00
8168  0000000000000000  03388 	DB $00,$00,$00,$00,$00,$00,$00,$00
8170  0000000000000000  03389 	DB $00,$00,$00,$00,$00,$00,$00,$00
8178  0000000000000000  03390 	DB $00,$00,$00,$00,$00,$00,$00,$00
8180  0000000000000000  03391 	DB $00,$00,$00,$00,$00,$00,$00,$00
8188  0000000000000000  03392 	DB $00,$00,$00,$00,$00,$00,$00,$00
8190  0000000000000000  03393 	DB $00,$00,$00,$00,$00,$00,$00,$00
8198  0000000000000000  03394 	DB $00,$00,$00,$00,$00,$00,$00,$00
81A0  0000000000000000  03395 	DB $00,$00,$00,$00,$00,$00,$00,$00
81A8  0000000000000000  03396 	DB $00,$00,$00,$00,$00,$00,$00,$00
81B0  0000000000000000  03397 	DB $00,$00,$00,$00,$00,$00,$00,$00
81B8  0000000000000000  03398 	DB $00,$00,$00,$00,$00,$00,$00,$00
81C0  0000000000000000  03399 	DB $00,$00,$00,$00,$00,$00,$00,$00
81C8  0000000000000000  03400 	DB $00,$00,$00,$00,$00,$00,$00,$00
81D0  0000000000000000  03401 	DB $00,$00,$00,$00,$00,$00,$00,$00
81D8  0000000000000000  03402 	DB $00,$00,$00,$00,$00,$00,$00,$00
81E0  0000000000000000  03403 	DB $00,$00,$00,$00,$00,$00,$00,$00
81E8  0000000000000000  03404 	DB $00,$00,$00,$00,$00,$00,$00,$00
81F0  0000000000000000  03405 	DB $00,$00,$00,$00,$00,$00,$00,$00
81F8  0000000000000000  03406 	DB $00,$00,$00,$00,$00,$00,$00,$00
8200  0000000000000000  03407 	DB $00,$00,$00,$00,$00,$00,$00,$00
8208  0000000000000000  03408 	DB $00,$00,$00,$00,$00,$00,$00,$00
8210  2020202020002000  03409 	DB $20,$20,$20,$20,$20,$00,$20,$00
8218  2020202020002000  03410 	DB $20,$20,$20,$20,$20,$00,$20,$00
8220  5050500000000000  03411 	DB $50,$50,$50,$00,$00,$00,$00,$00
8228  5050500000000000  03412 	DB $50,$50,$50,$00,$00,$00,$00,$00
8230  5050F850F8505000  03413 	DB $50,$50,$F8,$50,$F8,$50,$50,$00
8238  5050F850F8505000  03414 	DB $50,$50,$F8,$50,$F8,$50,$50,$00
8240  2078A07028F02000  03415 	DB $20,$78,$A0,$70,$28,$F0,$20,$00
8248  2078A07028F02000  03416 	DB $20,$78,$A0,$70,$28,$F0,$20,$00
8250  C0C8102040981800  03417 	DB $C0,$C8,$10,$20,$40,$98,$18,$00
8258  C0C8102040981800  03418 	DB $C0,$C8,$10,$20,$40,$98,$18,$00
8260  40A040A0A8906800  03419 	DB $40,$A0,$40,$A0,$A8,$90,$68,$00
8268  40A040A0A8906800  03420 	DB $40,$A0,$40,$A0,$A8,$90,$68,$00
8270  6020400000000000  03421 	DB $60,$20,$40,$00,$00,$00,$00,$00
8278  6020400000000000  03422 	DB $60,$20,$40,$00,$00,$00,$00,$00
8280  1020404040201000  03423 	DB $10,$20,$40,$40,$40,$20,$10,$00
8288  1020404040201000  03424 	DB $10,$20,$40,$40,$40,$20,$10,$00
8290  4020101010204000  03425 	DB $40,$20,$10,$10,$10,$20,$40,$00
8298  4020101010204000  03426 	DB $40,$20,$10,$10,$10,$20,$40,$00
82A0  00A8702070A80000  03427 	DB $00,$A8,$70,$20,$70,$A8,$00,$00
82A8  00A8702070A80000  03428 	DB $00,$A8,$70,$20,$70,$A8,$00,$00
82B0  002020F820200000  03429 	DB $00,$20,$20,$F8,$20,$20,$00,$00
82B8  002020F820200000  03430 	DB $00,$20,$20,$F8,$20,$20,$00,$00
82C0  0000000000602040  03431 	DB $00,$00,$00,$00,$00,$60,$20,$40
82C8  0000000000602040  03432 	DB $00,$00,$00,$00,$00,$60,$20,$40
82D0  000000FC00000000  03433 	DB $00,$00,$00,$FC,$00,$00,$00,$00
82D8  000000FC00000000  03434 	DB $00,$00,$00,$FC,$00,$00,$00,$00
82E0  0000000000006000  03435 	DB $00,$00,$00,$00,$00,$00,$60,$00
82E8  0000000000006000  03436 	DB $00,$00,$00,$00,$00,$00,$60,$00
82F0  0008102040800000  03437 	DB $00,$08,$10,$20,$40,$80,$00,$00
82F8  0008102040800000  03438 	DB $00,$08,$10,$20,$40,$80,$00,$00
8300  708898A8C8887000  03439 	DB $70,$88,$98,$A8,$C8,$88,$70,$00
8308  708898A8C8887000  03440 	DB $70,$88,$98,$A8,$C8,$88,$70,$00
8310  206020202020F800  03441 	DB $20,$60,$20,$20,$20,$20,$F8,$00
8318  206020202020F800  03442 	DB $20,$60,$20,$20,$20,$20,$F8,$00
8320  708808106080F800  03443 	DB $70,$88,$08,$10,$60,$80,$F8,$00
8328  708808106080F800  03444 	DB $70,$88,$08,$10,$60,$80,$F8,$00
8330  7088083008887000  03445 	DB $70,$88,$08,$30,$08,$88,$70,$00
8338  7088083008887000  03446 	DB $70,$88,$08,$30,$08,$88,$70,$00
8340  30509090F8101000  03447 	DB $30,$50,$90,$90,$F8,$10,$10,$00
8348  30509090F8101000  03448 	DB $30,$50,$90,$90,$F8,$10,$10,$00
8350  F880F0080808F000  03449 	DB $F8,$80,$F0,$08,$08,$08,$F0,$00
8358  F880F0080808F000  03450 	DB $F8,$80,$F0,$08,$08,$08,$F0,$00
8360  304080F088887000  03451 	DB $30,$40,$80,$F0,$88,$88,$70,$00
8368  304080F088887000  03452 	DB $30,$40,$80,$F0,$88,$88,$70,$00
8370  F808102020202000  03453 	DB $F8,$08,$10,$20,$20,$20,$20,$00
8378  F808102020202000  03454 	DB $F8,$08,$10,$20,$20,$20,$20,$00
8380  7088887088887000  03455 	DB $70,$88,$88,$70,$88,$88,$70,$00
8388  7088887088887000  03456 	DB $70,$88,$88,$70,$88,$88,$70,$00
8390  7088887808106000  03457 	DB $70,$88,$88,$78,$08,$10,$60,$00
8398  7088887808106000  03458 	DB $70,$88,$88,$78,$08,$10,$60,$00
83A0  0000006000600000  03459 	DB $00,$00,$00,$60,$00,$60,$00,$00
83A8  0000006000600000  03460 	DB $00,$00,$00,$60,$00,$60,$00,$00
83B0  0000006000602040  03461 	DB $00,$00,$00,$60,$00,$60,$20,$40
83B8  0000006000602040  03462 	DB $00,$00,$00,$60,$00,$60,$20,$40
83C0  1020408040201000  03463 	DB $10,$20,$40,$80,$40,$20,$10,$00
83C8  1020408040201000  03464 	DB $10,$20,$40,$80,$40,$20,$10,$00
83D0  0000F800F8000000  03465 	DB $00,$00,$F8,$00,$F8,$00,$00,$00
83D8  0000F800F8000000  03466 	DB $00,$00,$F8,$00,$F8,$00,$00,$00
83E0  0804020102040800  03467 	DB $08,$04,$02,$01,$02,$04,$08,$00
83E8  0804020102040800  03468 	DB $08,$04,$02,$01,$02,$04,$08,$00
83F0  7088081020002000  03469 	DB $70,$88,$08,$10,$20,$00,$20,$00
83F8  7088081020002000  03470 	DB $70,$88,$08,$10,$20,$00,$20,$00
8400  708898A898807000  03471 	DB $70,$88,$98,$A8,$98,$80,$70,$00
8408  708898A898807000  03472 	DB $70,$88,$98,$A8,$98,$80,$70,$00
8410  20508888F8888800  03473 	DB $20,$50,$88,$88,$F8,$88,$88,$00
8418  20508888F8888800  03474 	DB $20,$50,$88,$88,$F8,$88,$88,$00
8420  F08888F08888F000  03475 	DB $F0,$88,$88,$F0,$88,$88,$F0,$00
8428  F08888F08888F000  03476 	DB $F0,$88,$88,$F0,$88,$88,$F0,$00
8430  7088808080887000  03477 	DB $70,$88,$80,$80,$80,$88,$70,$00
8438  7088808080887000  03478 	DB $70,$88,$80,$80,$80,$88,$70,$00
8440  F08888888888F000  03479 	DB $F0,$88,$88,$88,$88,$88,$F0,$00
8448  F08888888888F000  03480 	DB $F0,$88,$88,$88,$88,$88,$F0,$00
8450  F88080F08080F800  03481 	DB $F8,$80,$80,$F0,$80,$80,$F8,$00
8458  F88080F08080F800  03482 	DB $F8,$80,$80,$F0,$80,$80,$F8,$00
8460  F88080F080808000  03483 	DB $F8,$80,$80,$F0,$80,$80,$80,$00
8468  F88080F080808000  03484 	DB $F8,$80,$80,$F0,$80,$80,$80,$00
8470  708880B888887000  03485 	DB $70,$88,$80,$B8,$88,$88,$70,$00
8478  708880B888887000  03486 	DB $70,$88,$80,$B8,$88,$88,$70,$00
8480  888888F888888800  03487 	DB $88,$88,$88,$F8,$88,$88,$88,$00
8488  888888F888888800  03488 	DB $88,$88,$88,$F8,$88,$88,$88,$00
8490  7020202020207000  03489 	DB $70,$20,$20,$20,$20,$20,$70,$00
8498  7020202020207000  03490 	DB $70,$20,$20,$20,$20,$20,$70,$00
84A0  0808080888887000  03491 	DB $08,$08,$08,$08,$88,$88,$70,$00
84A8  0808080888887000  03492 	DB $08,$08,$08,$08,$88,$88,$70,$00
84B0  8890A0C0A0908800  03493 	DB $88,$90,$A0,$C0,$A0,$90,$88,$00
84B8  8890A0C0A0908800  03494 	DB $88,$90,$A0,$C0,$A0,$90,$88,$00
84C0  808080808080F800  03495 	DB $80,$80,$80,$80,$80,$80,$F8,$00
84C8  808080808080F800  03496 	DB $80,$80,$80,$80,$80,$80,$F8,$00
84D0  88D8A8A888888800  03497 	DB $88,$D8,$A8,$A8,$88,$88,$88,$00
84D8  88D8A8A888888800  03498 	DB $88,$D8,$A8,$A8,$88,$88,$88,$00
84E0  88C8C8A898988800  03499 	DB $88,$C8,$C8,$A8,$98,$98,$88,$00
84E8  88C8C8A898988800  03500 	DB $88,$C8,$C8,$A8,$98,$98,$88,$00
84F0  7088888888887000  03501 	DB $70,$88,$88,$88,$88,$88,$70,$00
84F8  7088888888887000  03502 	DB $70,$88,$88,$88,$88,$88,$70,$00
8500  F08888F080808000  03503 	DB $F0,$88,$88,$F0,$80,$80,$80,$00
8508  F08888F080808000  03504 	DB $F0,$88,$88,$F0,$80,$80,$80,$00
8510  7088888888A89068  03505 	DB $70,$88,$88,$88,$88,$A8,$90,$68
8518  7088888888A89068  03506 	DB $70,$88,$88,$88,$88,$A8,$90,$68
8520  F08888F0A0908800  03507 	DB $F0,$88,$88,$F0,$A0,$90,$88,$00
8528  F08888F0A0908800  03508 	DB $F0,$88,$88,$F0,$A0,$90,$88,$00
8530  7088807008887000  03509 	DB $70,$88,$80,$70,$08,$88,$70,$00
8538  7088807008887000  03510 	DB $70,$88,$80,$70,$08,$88,$70,$00
8540  F820202020202000  03511 	DB $F8,$20,$20,$20,$20,$20,$20,$00
8548  F820202020202000  03512 	DB $F8,$20,$20,$20,$20,$20,$20,$00
8550  8888888888887000  03513 	DB $88,$88,$88,$88,$88,$88,$70,$00
8558  8888888888887000  03514 	DB $88,$88,$88,$88,$88,$88,$70,$00
8560  8888888850502000  03515 	DB $88,$88,$88,$88,$50,$50,$20,$00
8568  8888888850502000  03516 	DB $88,$88,$88,$88,$50,$50,$20,$00
8570  888888A8A8D88800  03517 	DB $88,$88,$88,$A8,$A8,$D8,$88,$00
8578  888888A8A8D88800  03518 	DB $88,$88,$88,$A8,$A8,$D8,$88,$00
8580  8888502050888800  03519 	DB $88,$88,$50,$20,$50,$88,$88,$00
8588  8888502050888800  03520 	DB $88,$88,$50,$20,$50,$88,$88,$00
8590  8888887020202000  03521 	DB $88,$88,$88,$70,$20,$20,$20,$00
8598  8888887020202000  03522 	DB $88,$88,$88,$70,$20,$20,$20,$00
85A0  F80810204080F800  03523 	DB $F8,$08,$10,$20,$40,$80,$F8,$00
85A8  F80810204080F800  03524 	DB $F8,$08,$10,$20,$40,$80,$F8,$00
85B0  7860606060607800  03525 	DB $78,$60,$60,$60,$60,$60,$78,$00
85B8  7860606060607800  03526 	DB $78,$60,$60,$60,$60,$60,$78,$00
85C0  0080402010080000  03527 	DB $00,$80,$40,$20,$10,$08,$00,$00
85C8  0080402010080000  03528 	DB $00,$80,$40,$20,$10,$08,$00,$00
85D0  F03030303030F000  03529 	DB $F0,$30,$30,$30,$30,$30,$F0,$00
85D8  F03030303030F000  03530 	DB $F0,$30,$30,$30,$30,$30,$F0,$00
85E0  2050880000000000  03531 	DB $20,$50,$88,$00,$00,$00,$00,$00
85E8  2050880000000000  03532 	DB $20,$50,$88,$00,$00,$00,$00,$00
85F0  000000000000F800  03533 	DB $00,$00,$00,$00,$00,$00,$F8,$00
85F8  000000000000F800  03534 	DB $00,$00,$00,$00,$00,$00,$F8,$00
8600  4020100000000000  03535 	DB $40,$20,$10,$00,$00,$00,$00,$00
8608  4020100000000000  03536 	DB $40,$20,$10,$00,$00,$00,$00,$00
8610  0000689888986800  03537 	DB $00,$00,$68,$98,$88,$98,$68,$00
8618  0000689888986800  03538 	DB $00,$00,$68,$98,$88,$98,$68,$00
8620  8080F0888888F000  03539 	DB $80,$80,$F0,$88,$88,$88,$F0,$00
8628  8080F0888888F000  03540 	DB $80,$80,$F0,$88,$88,$88,$F0,$00
8630  0000788080807800  03541 	DB $00,$00,$78,$80,$80,$80,$78,$00
8638  0000788080807800  03542 	DB $00,$00,$78,$80,$80,$80,$78,$00
8640  0808689888986800  03543 	DB $08,$08,$68,$98,$88,$98,$68,$00
8648  0808689888986800  03544 	DB $08,$08,$68,$98,$88,$98,$68,$00
8650  00007088F8807000  03545 	DB $00,$00,$70,$88,$F8,$80,$70,$00
8658  00007088F8807000  03546 	DB $00,$00,$70,$88,$F8,$80,$70,$00
8660  304840E040404000  03547 	DB $30,$48,$40,$E0,$40,$40,$40,$00
8668  304840E040404000  03548 	DB $30,$48,$40,$E0,$40,$40,$40,$00
8670  0000788888780870  03549 	DB $00,$00,$78,$88,$88,$78,$08,$70
8678  0000788888780870  03550 	DB $00,$00,$78,$88,$88,$78,$08,$70
8680  8080F08888888800  03551 	DB $80,$80,$F0,$88,$88,$88,$88,$00
8688  8080F08888888800  03552 	DB $80,$80,$F0,$88,$88,$88,$88,$00
8690  2000602020207000  03553 	DB $20,$00,$60,$20,$20,$20,$70,$00
8698  2000602020207000  03554 	DB $20,$00,$60,$20,$20,$20,$70,$00
86A0  0800180888887000  03555 	DB $08,$00,$18,$08,$88,$88,$70,$00
86A8  0800180888887000  03556 	DB $08,$00,$18,$08,$88,$88,$70,$00
86B0  80808890E0908800  03557 	DB $80,$80,$88,$90,$E0,$90,$88,$00
86B8  80808890E0908800  03558 	DB $80,$80,$88,$90,$E0,$90,$88,$00
86C0  6020202020207000  03559 	DB $60,$20,$20,$20,$20,$20,$70,$00
86C8  6020202020207000  03560 	DB $60,$20,$20,$20,$20,$20,$70,$00
86D0  0000D0A8A8A8A800  03561 	DB $00,$00,$D0,$A8,$A8,$A8,$A8,$00
86D8  0000D0A8A8A8A800  03562 	DB $00,$00,$D0,$A8,$A8,$A8,$A8,$00
86E0  0000B0C888888800  03563 	DB $00,$00,$B0,$C8,$88,$88,$88,$00
86E8  0000B0C888888800  03564 	DB $00,$00,$B0,$C8,$88,$88,$88,$00
86F0  0000708888887000  03565 	DB $00,$00,$70,$88,$88,$88,$70,$00
86F8  0000708888887000  03566 	DB $00,$00,$70,$88,$88,$88,$70,$00
8700  0000F0888888F080  03567 	DB $00,$00,$F0,$88,$88,$88,$F0,$80
8708  0000F0888888F080  03568 	DB $00,$00,$F0,$88,$88,$88,$F0,$80
8710  0000788888887808  03569 	DB $00,$00,$78,$88,$88,$88,$78,$08
8718  0000788888887808  03570 	DB $00,$00,$78,$88,$88,$88,$78,$08
8720  0000B8C080808000  03571 	DB $00,$00,$B8,$C0,$80,$80,$80,$00
8728  0000B8C080808000  03572 	DB $00,$00,$B8,$C0,$80,$80,$80,$00
8730  000078807008F000  03573 	DB $00,$00,$78,$80,$70,$08,$F0,$00
8738  000078807008F000  03574 	DB $00,$00,$78,$80,$70,$08,$F0,$00
8740  2020F82020202000  03575 	DB $20,$20,$F8,$20,$20,$20,$20,$00
8748  2020F82020202000  03576 	DB $20,$20,$F8,$20,$20,$20,$20,$00
8750  0000888888986800  03577 	DB $00,$00,$88,$88,$88,$98,$68,$00
8758  0000888888986800  03578 	DB $00,$00,$88,$88,$88,$98,$68,$00
8760  0000888888502000  03579 	DB $00,$00,$88,$88,$88,$50,$20,$00
8768  0000888888502000  03580 	DB $00,$00,$88,$88,$88,$50,$20,$00
8770  000088A8A8A85000  03581 	DB $00,$00,$88,$A8,$A8,$A8,$50,$00
8778  000088A8A8A85000  03582 	DB $00,$00,$88,$A8,$A8,$A8,$50,$00
8780  0000885020508800  03583 	DB $00,$00,$88,$50,$20,$50,$88,$00
8788  0000885020508800  03584 	DB $00,$00,$88,$50,$20,$50,$88,$00
8790  0000888898680870  03585 	DB $00,$00,$88,$88,$98,$68,$08,$70
8798  0000888898680870  03586 	DB $00,$00,$88,$88,$98,$68,$08,$70
87A0  0000F8102040F800  03587 	DB $00,$00,$F8,$10,$20,$40,$F8,$00
87A8  0000F8102040F800  03588 	DB $00,$00,$F8,$10,$20,$40,$F8,$00
87B0  1820204020201800  03589 	DB $18,$20,$20,$40,$20,$20,$18,$00
87B8  1820204020201800  03590 	DB $18,$20,$20,$40,$20,$20,$18,$00
87C0  2020202020202000  03591 	DB $20,$20,$20,$20,$20,$20,$20,$00
87C8  2020202020202000  03592 	DB $20,$20,$20,$20,$20,$20,$20,$00
87D0  C02020102020C000  03593 	DB $C0,$20,$20,$10,$20,$20,$C0,$00
87D8  C02020102020C000  03594 	DB $C0,$20,$20,$10,$20,$20,$C0,$00
87E0  000040A810000000  03595 	DB $00,$00,$40,$A8,$10,$00,$00,$00
87E8  000040A810000000  03596 	DB $00,$00,$40,$A8,$10,$00,$00,$00
87F0  707020F820705000  03597 	DB $70,$70,$20,$F8,$20,$70,$50,$00
87F8  707020F820705000  03598 	DB $70,$70,$20,$F8,$20,$70,$50,$00
8800  F0F0F08000000000  03599 	DB $F0,$F0,$F0,$80,$00,$00,$00,$00
8808  0F0F0F7FFFFFFFFF  03600 	DB $0F,$0F,$0F,$7F,$FF,$FF,$FF,$FF
8810  0000000000000000  03601 	DB $00,$00,$00,$00,$00,$00,$00,$00
8818  FFFFFFFFFFFFFFFF  03602 	DB $FF,$FF,$FF,$FF,$FF,$FF,$FF,$FF
8820  0000000000030F3F  03603 	DB $00,$00,$00,$00,$00,$03,$0F,$3F
8828  FFFFFFFFFFFFFFFF  03604 	DB $FF,$FF,$FF,$FF,$FF,$FF,$FF,$FF
8830  01074F7FFFFFFFFF  03605 	DB $01,$07,$4F,$7F,$FF,$FF,$FF,$FF
8838  FFFFFFFFFFFFFFFF  03606 	DB $FF,$FF,$FF,$FF,$FF,$FF,$FF,$FF
8840  FFFFFFFFFFFFFFFF  03607 	DB $FF,$FF,$FF,$FF,$FF,$FF,$FF,$FF
8848  FFFFFFFFFFFFFFFF  03608 	DB $FF,$FF,$FF,$FF,$FF,$FF,$FF,$FF
8850  00000103070F1F3F  03609 	DB $00,$00,$01,$03,$07,$0F,$1F,$3F
8858  FFFFFFFFFFFFFFFF  03610 	DB $FF,$FF,$FF,$FF,$FF,$FF,$FF,$FF
8860  7FFFFFFFFFFFFFFF  03611 	DB $7F,$FF,$FF,$FF,$FF,$FF,$FF,$FF
8868  FFFFFFFFFFFFFFFF  03612 	DB $FF,$FF,$FF,$FF,$FF,$FF,$FF,$FF
8870  000000000303070F  03613 	DB $00,$00,$00,$00,$03,$03,$07,$0F
8878  FFFFFFFFFFFFFFFF  03614 	DB $FF,$FF,$FF,$FF,$FF,$FF,$FF,$FF
8880  3F7FFFFFFFFFFFFF  03615 	DB $3F,$7F,$FF,$FF,$FF,$FF,$FF,$FF
8888  FFFFFFFFFFFFFFFF  03616 	DB $FF,$FF,$FF,$FF,$FF,$FF,$FF,$FF
8890  0F1F1F3F7FFFFFFF  03617 	DB $0F,$1F,$1F,$3F,$7F,$FF,$FF,$FF
8898  FFFFFFFFFFFFFFFF  03618 	DB $FF,$FF,$FF,$FF,$FF,$FF,$FF,$FF
88A0  FFFFFFFFFCF0E3C7  03619 	DB $FF,$FF,$FF,$FF,$FC,$F0,$E3,$C7
88A8  FFFFFFFFFFFFFCF8  03620 	DB $FF,$FF,$FF,$FF,$FF,$FF,$FC,$F8
88B0  FFFFFFEF00FFE7FF  03621 	DB $FF,$FF,$FF,$EF,$00,$FF,$E7,$FF
88B8  FFFFFFFFFF000000  03622 	DB $FF,$FF,$FF,$FF,$FF,$00,$00,$00
88C0  FFFFFFFFFF3FF7F9  03623 	DB $FF,$FF,$FF,$FF,$FF,$3F,$F7,$F9
88C8  FFFFFFFFFFFF0F07  03624 	DB $FF,$FF,$FF,$FF,$FF,$FF,$0F,$07
88D0  00010303070F0F1F  03625 	DB $00,$01,$03,$03,$07,$0F,$0F,$1F
88D8  FFFFFFFFFFFFFFFF  03626 	DB $FF,$FF,$FF,$FF,$FF,$FF,$FF,$FF
88E0  FFFFFFFFFEFEFCFC  03627 	DB $FF,$FF,$FF,$FF,$FE,$FE,$FC,$FC
88E8  FFFFFFFFFFFFFFFF  03628 	DB $FF,$FF,$FF,$FF,$FF,$FF,$FF,$FF
88F0  CF9F1F3F7F7EF0E0  03629 	DB $CF,$9F,$1F,$3F,$7F,$7E,$F0,$E0
88F8  F0E0E0C080810F1F  03630 	DB $F0,$E0,$E0,$C0,$80,$81,$0F,$1F
8900  FFFFFFFFFF010000  03631 	DB $FF,$FF,$FF,$FF,$FF,$01,$00,$00
8908  0000000000FEFFFF  03632 	DB $00,$00,$00,$00,$00,$FE,$FF,$FF
8910  FEFFFFFFFFFF3F0F  03633 	DB $FE,$FF,$FF,$FF,$FF,$FF,$3F,$0F
8918  010000000000C0F0  03634 	DB $01,$00,$00,$00,$00,$00,$C0,$F0
8920  3FE7C3E1E1E0E0F0  03635 	DB $3F,$E7,$C3,$E1,$E1,$E0,$E0,$F0
8928  FF1F070300000000  03636 	DB $FF,$1F,$07,$03,$00,$00,$00,$00
8930  FFFFFFFFFFFF7F1F  03637 	DB $FF,$FF,$FF,$FF,$FF,$FF,$7F,$1F
8938  FFFFFFFFFF7F3F3F  03638 	DB $FF,$FF,$FF,$FF,$FF,$7F,$3F,$3F
8940  1F3F3F3F7F7FFFFF  03639 	DB $1F,$3F,$3F,$3F,$7F,$7F,$FF,$FF
8948  FFFFFFFFFFFFFFFF  03640 	DB $FF,$FF,$FF,$FF,$FF,$FF,$FF,$FF
8950  FDFDFDFAFAF8F8F8  03641 	DB $FD,$FD,$FD,$FA,$FA,$F8,$F8,$F8
8958  FEFEFEFDFDFFFFFF  03642 	DB $FE,$FE,$FE,$FD,$FD,$FF,$FF,$FF
8960  C080000000000000  03643 	DB $C0,$80,$00,$00,$00,$00,$00,$00
8968  3F7FFFFFFFFFFFFF  03644 	DB $3F,$7F,$FF,$FF,$FF,$FF,$FF,$FF
8970  0F07070301010101  03645 	DB $0F,$07,$07,$03,$01,$01,$01,$01
8978  F0F8F8FCFEFEFEFE  03646 	DB $F0,$F8,$F8,$FC,$FE,$FE,$FE,$FE
8980  F0F0F8F8F8F8F8FC  03647 	DB $F0,$F0,$F8,$F8,$F8,$F8,$F8,$FC
8988  0000000000000000  03648 	DB $00,$00,$00,$00,$00,$00,$00,$00
8990  1F0F0F07070F0703  03649 	DB $1F,$0F,$0F,$07,$07,$0F,$07,$03
8998  1F1F0F0F0F070707  03650 	DB $1F,$1F,$0F,$0F,$0F,$07,$07,$07
89A0  0001010303030707  03651 	DB $00,$01,$01,$03,$03,$03,$07,$07
89A8  FFFFFFFFFFFFFFFF  03652 	DB $FF,$FF,$FF,$FF,$FF,$FF,$FF,$FF
89B0  F4F4F4F0FCFCF7F7  03653 	DB $F4,$F4,$F4,$F0,$FC,$FC,$F7,$F7
89B8  FBFBFBFFFBFBF8F8  03654 	DB $FB,$FB,$FB,$FF,$FB,$FB,$F8,$F8
89C0  000000021300E0F0  03655 	DB $00,$00,$00,$02,$13,$00,$E0,$F0
89C8  FFFFFFFFFFFF1F0F  03656 	DB $FF,$FF,$FF,$FF,$FF,$FF,$1F,$0F
89D0  0000001F18070E0E  03657 	DB $00,$00,$00,$1F,$18,$07,$0E,$0E
89D8  FFFFFFFFFFF8F0F1  03658 	DB $FF,$FF,$FF,$FF,$FF,$F8,$F0,$F1
89E0  010303870F7FC3F8  03659 	DB $01,$03,$03,$87,$0F,$7F,$C3,$F8
89E8  FEFCFCF8F0003CFF  03660 	DB $FE,$FC,$FC,$F8,$F0,$00,$3C,$FF
89F0  FCFEFEFEFEFEF0F1  03661 	DB $FC,$FE,$FE,$FE,$FE,$FE,$F0,$F1
89F8  0000000000000000  03662 	DB $00,$00,$00,$00,$00,$00,$00,$00
8A00  0302060474C60F0C  03663 	DB $03,$02,$06,$04,$74,$C6,$0F,$0C
8A08  0707030303010003  03664 	DB $07,$07,$03,$03,$03,$01,$00,$03
8A10  FF1F030100000000  03665 	DB $FF,$1F,$03,$01,$00,$00,$00,$00
8A18  FFFFFFFFFFFFFFFF  03666 	DB $FF,$FF,$FF,$FF,$FF,$FF,$FF,$FF
8A20  FFFFFFFFFFFF7F7F  03667 	DB $FF,$FF,$FF,$FF,$FF,$FF,$7F,$7F
8A28  FFFFFFFFFFFFFFFF  03668 	DB $FF,$FF,$FF,$FF,$FF,$FF,$FF,$FF
8A30  070707070707070F  03669 	DB $07,$07,$07,$07,$07,$07,$07,$0F
8A38  FFFFFFFFFFFFFFFF  03670 	DB $FF,$FF,$FF,$FF,$FF,$FF,$FF,$FF
8A40  F7C4A8AB9EBFFEDC  03671 	DB $F7,$C4,$A8,$AB,$9E,$BF,$FE,$DC
8A48  F8FBF7C43878F9FB  03672 	DB $F8,$FB,$F7,$C4,$38,$78,$F9,$FB
8A50  FC0617F7073D0302  03673 	DB $FC,$06,$17,$F7,$07,$3D,$03,$02
8A58  03F9E800C0C0FCFD  03674 	DB $03,$F9,$E8,$00,$C0,$C0,$FC,$FD
8A60  18193B3D3C3C1C1C  03675 	DB $18,$19,$3B,$3D,$3C,$3C,$1C,$1C
8A68  E7E6C4C2C3C3E3E3  03676 	DB $E7,$E6,$C4,$C2,$C3,$C3,$E3,$E3
8A70  F699761940000000  03677 	DB $F6,$99,$76,$19,$40,$00,$00,$00
8A78  F970C0E6BFFFFFFF  03678 	DB $F9,$70,$C0,$E6,$BF,$FF,$FF,$FF
8A80  1FFFC7C743434387  03679 	DB $1F,$FF,$C7,$C7,$43,$43,$43,$87
8A88  80003838BCBCBC78  03680 	DB $80,$00,$38,$38,$BC,$BC,$BC,$78
8A90  8089818DCDFDFDEF  03681 	DB $80,$89,$81,$8D,$CD,$FD,$FD,$EF
8A98  0706060202020200  03682 	DB $07,$06,$06,$02,$02,$02,$02,$00
8AA0  7F7F3F3F3F1F1F0F  03683 	DB $7F,$7F,$3F,$3F,$3F,$1F,$1F,$0F
8AA8  FFFFFFFFFFFFFFFF  03684 	DB $FF,$FF,$FF,$FF,$FF,$FF,$FF,$FF
8AB0  0F0F070F0F07070F  03685 	DB $0F,$0F,$07,$0F,$0F,$07,$07,$0F
8AB8  FFFFFFFFFFFFFFFF  03686 	DB $FF,$FF,$FF,$FF,$FF,$FF,$FF,$FF
8AC0  D4E4F4FBF8FCFCFC  03687 	DB $D4,$E4,$F4,$FB,$F8,$FC,$FC,$FC
8AC8  FBFBFBFCFFFFFFFF  03688 	DB $FB,$FB,$FB,$FC,$FF,$FF,$FF,$FF
8AD0  06040CA000000000  03689 	DB $06,$04,$0C,$A0,$00,$00,$00,$00
8AD8  F9FBF35FFFFFFFFF  03690 	DB $F9,$FB,$F3,$5F,$FF,$FF,$FF,$FF
8AE0  0E1F1E1F1F0B813F  03691 	DB $0E,$1F,$1E,$1F,$1F,$0B,$81,$3F
8AE8  F1E0E1E0E0F4FEC0  03692 	DB $F1,$E0,$E1,$E0,$E0,$F4,$FE,$C0
8AF0  0000020E86808000  03693 	DB $00,$00,$02,$0E,$86,$80,$80,$00
8AF8  FFFFFFFF7F7F7FFF  03694 	DB $FF,$FF,$FF,$FF,$7F,$7F,$7F,$FF
8B00  8707070707070F0F  03695 	DB $87,$07,$07,$07,$07,$07,$0F,$0F
8B08  78F8F8F8F8F8F0F0  03696 	DB $78,$F8,$F8,$F8,$F8,$F8,$F0,$F0
8B10  EBF0FEF8F0F0F0F0  03697 	DB $EB,$F0,$FE,$F8,$F0,$F0,$F0,$F0
8B18  040F01070F0F0F0F  03698 	DB $04,$0F,$01,$07,$0F,$0F,$0F,$0F
8B20  0F07070303010000  03699 	DB $0F,$07,$07,$03,$03,$01,$00,$00
8B28  FFFFFFFFFFFFFFFF  03700 	DB $FF,$FF,$FF,$FF,$FF,$FF,$FF,$FF
8B30  FFFFFFFFFFFFFF3F  03701 	DB $FF,$FF,$FF,$FF,$FF,$FF,$FF,$3F
8B38  FFFFFFFFFFFFFFFF  03702 	DB $FF,$FF,$FF,$FF,$FF,$FF,$FF,$FF
8B40  0F07070707030707  03703 	DB $0F,$07,$07,$07,$07,$03,$07,$07
8B48  FFFFFFFFFFFFFFFF  03704 	DB $FF,$FF,$FF,$FF,$FF,$FF,$FF,$FF
8B50  FEFFFFFFFFFFFFFF  03705 	DB $FE,$FF,$FF,$FF,$FF,$FF,$FF,$FF
8B58  FFFFFFFFFFFFFFFF  03706 	DB $FF,$FF,$FF,$FF,$FF,$FF,$FF,$FF
8B60  000200008087C3C0  03707 	DB $00,$02,$00,$00,$80,$87,$C3,$C0
8B68  FFFDFFFFFFF8FCFF  03708 	DB $FF,$FD,$FF,$FF,$FF,$F8,$FC,$FF
8B70  3000000003FFFFC0  03709 	DB $30,$00,$00,$00,$03,$FF,$FF,$C0
8B78  CFFFFFFFFC00003F  03710 	DB $CF,$FF,$FF,$FF,$FC,$00,$00,$3F
8B80  00000038F0C00000  03711 	DB $00,$00,$00,$38,$F0,$C0,$00,$00
8B88  FFFFFFC70F3FFFFF  03712 	DB $FF,$FF,$FF,$C7,$0F,$3F,$FF,$FF
8B90  0B03030303030307  03713 	DB $0B,$03,$03,$03,$03,$03,$03,$07
8B98  F4FCFCFCFCFCFCF8  03714 	DB $F4,$FC,$FC,$FC,$FC,$FC,$FC,$F8
8BA0  F0F0F0F0F0F0F0E8  03715 	DB $F0,$F0,$F0,$F0,$F0,$F0,$F0,$E8
8BA8  0F0F0F0F0F0F0F07  03716 	DB $0F,$0F,$0F,$0F,$0F,$0F,$0F,$07
8BB0  1F0F030000000000  03717 	DB $1F,$0F,$03,$00,$00,$00,$00,$00
8BB8  FFFFFFFFFFFFFFFF  03718 	DB $FF,$FF,$FF,$FF,$FF,$FF,$FF,$FF
8BC0  FFFFFFFF3F0F0703  03719 	DB $FF,$FF,$FF,$FF,$3F,$0F,$07,$03
8BC8  FFFFFFFFFFFFFFFF  03720 	DB $FF,$FF,$FF,$FF,$FF,$FF,$FF,$FF
8BD0  0707030707070703  03721 	DB $07,$07,$03,$07,$07,$07,$07,$03
8BD8  FFFFFFFFFFFFFFFF  03722 	DB $FF,$FF,$FF,$FF,$FF,$FF,$FF,$FF
8BE0  E0E0F0F4F8FAFCFE  03723 	DB $E0,$E0,$F0,$F4,$F8,$FA,$FC,$FE
8BE8  FFFFFFFBFFFDFFFF  03724 	DB $FF,$FF,$FF,$FB,$FF,$FD,$FF,$FF
8BF0  00000000060E1F1F  03725 	DB $00,$00,$00,$00,$06,$0E,$1F,$1F
8BF8  FFFFFFFFF9F1E0E0  03726 	DB $FF,$FF,$FF,$FF,$F9,$F1,$E0,$E0
8C00  070F1F3F7FFEDEF5  03727 	DB $07,$0F,$1F,$3F,$7F,$FE,$DE,$F5
8C08  F8F0E0C08001230E  03728 	DB $F8,$F0,$E0,$C0,$80,$01,$23,$0E
8C10  C8C8A8E276C0709E  03729 	DB $C8,$C8,$A8,$E2,$76,$C0,$70,$9E
8C18  0707070D891B1B33  03730 	DB $07,$07,$07,$0D,$89,$1B,$1B,$33
8C20  0000000000008020  03731 	DB $00,$00,$00,$00,$00,$00,$80,$20
8C28  FFFFFFFFFFFF7F1F  03732 	DB $FF,$FF,$FF,$FF,$FF,$FF,$7F,$1F
8C30  0703030703030303  03733 	DB $07,$03,$03,$07,$03,$03,$03,$03
8C38  FFFFFFFFFFFFFFFF  03734 	DB $FF,$FF,$FF,$FF,$FF,$FF,$FF,$FF
8C40  FFFFFFFFFFFDFCEA  03735 	DB $FF,$FF,$FF,$FF,$FF,$FD,$FC,$EA
8C48  FFFFFFFFFFFEF8F0  03736 	DB $FF,$FF,$FF,$FF,$FF,$FE,$F8,$F0
8C50  FEFBE8A61C3DB27C  03737 	DB $FE,$FB,$E8,$A6,$1C,$3D,$B2,$7C
8C58  FFFCF1C183030707  03738 	DB $FF,$FC,$F1,$C1,$83,$03,$07,$07
8C60  00003F3F20305050  03739 	DB $00,$00,$3F,$3F,$20,$30,$50,$50
8C68  FFFFC0C0DFCF8F8F  03740 	DB $FF,$FF,$C0,$C0,$DF,$CF,$8F,$8F
8C70  3F7FF88000000103  03741 	DB $3F,$7F,$F8,$80,$00,$00,$01,$03
8C78  C080077FFFFFFFFF  03742 	DB $C0,$80,$07,$7F,$FF,$FF,$FF,$FF
8C80  CF09163C6FD9F39E  03743 	DB $CF,$09,$16,$3C,$6F,$D9,$F3,$9E
8C88  3CFCF8F1F1E3C7C7  03744 	DB $3C,$FC,$F8,$F1,$F1,$E3,$C7,$C7
8C90  23FC46D9DD12FA26  03745 	DB $23,$FC,$46,$D9,$DD,$12,$FA,$26
8C98  7666ECCC98B83070  03746 	DB $76,$66,$EC,$CC,$98,$B8,$30,$70
8CA0  1010060100C00000  03747 	DB $10,$10,$06,$01,$00,$C0,$00,$00
8CA8  0F0F010000000000  03748 	DB $0F,$0F,$01,$00,$00,$00,$00,$00
8CB0  0000008040201006  03749 	DB $00,$00,$00,$80,$40,$20,$10,$06
8CB8  FFFFFF7F3F1F0F01  03750 	DB $FF,$FF,$FF,$7F,$3F,$1F,$0F,$01
8CC0  0101000000000000  03751 	DB $01,$01,$00,$00,$00,$00,$00,$00
8CC8  FFFFFFFFFFFFFFFF  03752 	DB $FF,$FF,$FF,$FF,$FF,$FF,$FF,$FF
8CD0  FFFFFFFFFA7F173E  03753 	DB $FF,$FF,$FF,$FF,$FA,$7F,$17,$3E
8CD8  FFFFFFFEFCF8F8F0  03754 	DB $FF,$FF,$FF,$FE,$FC,$F8,$F8,$F0
8CE0  C499B373E7EE5FFD  03755 	DB $C4,$99,$B3,$73,$E7,$EE,$5F,$FD
8CE8  E0C0000000000000  03756 	DB $E0,$C0,$00,$00,$00,$00,$00,$00
8CF0  E4F46CE8F0406004  03757 	DB $E4,$F4,$6C,$E8,$F0,$40,$60,$04
8CF8  0F0F1F1F1F9F9F9B  03758 	DB $0F,$0F,$1F,$1F,$1F,$9F,$9F,$9B
8D00  5050585858D8182A  03759 	DB $50,$50,$58,$58,$58,$D8,$18,$2A
8D08  8F8F87878707C7C7  03760 	DB $8F,$8F,$87,$87,$87,$07,$C7,$C7
8D10  070F1E3F7F0B060E  03761 	DB $07,$0F,$1E,$3F,$7F,$0B,$06,$0E
8D18  FFFFFFFEFCFCF8F1  03762 	DB $FF,$FF,$FF,$FE,$FC,$FC,$F8,$F1
8D20  64CE789339E36FE4  03763 	DB $64,$CE,$78,$93,$39,$E3,$6F,$E4
8D28  8E1C1D397377E6CE  03764 	DB $8E,$1C,$1D,$39,$73,$77,$E6,$CE
8D30  C9E898D0226640CC  03765 	DB $C9,$E8,$98,$D0,$22,$66,$40,$CC
8D38  60C0C08080000000  03766 	DB $60,$C0,$C0,$80,$80,$00,$00,$00
8D40  0000000000000000  03767 	DB $00,$00,$00,$00,$00,$00,$00,$00
8D48  0000000000000000  03768 	DB $00,$00,$00,$00,$00,$00,$00,$00
8D50  0100000000000000  03769 	DB $01,$00,$00,$00,$00,$00,$00,$00
8D58  0000000000000000  03770 	DB $00,$00,$00,$00,$00,$00,$00,$00
8D60  0040201008040600  03771 	DB $00,$40,$20,$10,$08,$04,$06,$00
8D68  FF3F1F0F07030100  03772 	DB $FF,$3F,$1F,$0F,$07,$03,$01,$00
8D70  00000000000000C0  03773 	DB $00,$00,$00,$00,$00,$00,$00,$C0
8D78  FFFFFFFFFFFFFF3F  03774 	DB $FF,$FF,$FF,$FF,$FF,$FF,$FF,$3F
8D80  2E2C2C3C7D757767  03775 	DB $2E,$2C,$2C,$3C,$7D,$75,$77,$67
8D88  F0F0F0E0E0E0E0F0  03776 	DB $F0,$F0,$F0,$E0,$E0,$E0,$E0,$F0
8D90  BC7EFEFEF8FDFDFF  03777 	DB $BC,$7E,$FE,$FE,$F8,$FD,$FD,$FF
8D98  0101010103020200  03778 	DB $01,$01,$01,$01,$03,$02,$02,$00
8DA0  0E9A880808081113  03779 	DB $0E,$9A,$88,$08,$08,$08,$11,$13
8DA8  990D070707070F0F  03780 	DB $99,$0D,$07,$07,$07,$07,$0F,$0F
8DB0  0C0C01070684D1C5  03781 	DB $0C,$0C,$01,$07,$06,$84,$D1,$C5
8DB8  E7E7FFFFFFFFEEE8  03782 	DB $E7,$E7,$FF,$FF,$FF,$FF,$EE,$E8
8DC0  0F193B7EEFCE9933  03783 	DB $0F,$19,$3B,$7E,$EF,$CE,$99,$33
8DC8  F1E3C7870E1C3C79  03784 	DB $F1,$E3,$C7,$87,$0E,$1C,$3C,$79
8DD0  9EF91B7B677ED8BF  03785 	DB $9E,$F9,$1B,$7B,$67,$7E,$D8,$BF
8DD8  CC9CB83070E0E0C0  03786 	DB $CC,$9C,$B8,$30,$70,$E0,$E0,$C0
8DE0  F8F8F0C000000101  03787 	DB $F8,$F8,$F0,$C0,$00,$00,$01,$01
8DE8  0000000000000000  03788 	DB $00,$00,$00,$00,$00,$00,$00,$00
8DF0  00000000C0C0E0E0  03789 	DB $00,$00,$00,$00,$C0,$C0,$E0,$E0
8DF8  0000000000000000  03790 	DB $00,$00,$00,$00,$00,$00,$00,$00
8E00  1004000000000000  03791 	DB $10,$04,$00,$00,$00,$00,$00,$00
8E08  0F03010000000000  03792 	DB $0F,$03,$01,$00,$00,$00,$00,$00
8E10  776F4F7F3F1F7F7F  03793 	DB $77,$6F,$4F,$7F,$3F,$1F,$7F,$7F
8E18  E0E0E0C0C0C08080  03794 	DB $E0,$E0,$E0,$C0,$C0,$C0,$80,$80
8E20  FFFEFEEEEEDCDC9C  03795 	DB $FF,$FE,$FE,$EE,$EE,$DC,$DC,$9C
8E28  0000000000000000  03796 	DB $00,$00,$00,$00,$00,$00,$00,$00
8E30  172F2F4F4F5F9FBE  03797 	DB $17,$2F,$2F,$4F,$4F,$5F,$9F,$BE
8E38  0F1F1F3F3F3F7F7F  03798 	DB $0F,$1F,$1F,$3F,$3F,$3F,$7F,$7F
8E40  CECCFDBC7C7BE9FF  03799 	DB $CE,$CC,$FD,$BC,$7C,$7B,$E9,$FF
8E48  E0E1C3C380801C1C  03800 	DB $E0,$E1,$C3,$C3,$80,$80,$1C,$1C
8E50  7CCEBFFFFFFFFFFF  03801 	DB $7C,$CE,$BF,$FF,$FF,$FF,$FF,$FF
8E58  F3E0C00000000000  03802 	DB $F3,$E0,$C0,$00,$00,$00,$00,$00
8E60  BFFFEFFFFFFFFFFF  03803 	DB $BF,$FF,$EF,$FF,$FF,$FF,$FF,$FF
8E68  0000000000000000  03804 	DB $00,$00,$00,$00,$00,$00,$00,$00
8E70  81E1F9F9F9FBF3E3  03805 	DB $81,$E1,$F9,$F9,$F9,$FB,$F3,$E3
8E78  0000000000000000  03806 	DB $00,$00,$00,$00,$00,$00,$00,$00
8E80  F0F0F0F8F8F8FCFC  03807 	DB $F0,$F0,$F0,$F8,$F8,$F8,$FC,$FC
8E88  0000000000000000  03808 	DB $00,$00,$00,$00,$00,$00,$00,$00
8E90  00010200041E0F3F  03809 	DB $00,$01,$02,$00,$04,$1E,$0F,$3F
8E98  000001070F0F1F1F  03810 	DB $00,$00,$01,$07,$0F,$0F,$1F,$1F
8EA0  0000000001010203  03811 	DB $00,$00,$00,$00,$01,$01,$02,$03
8EA8  FFFFFFFFFEFEFCFC  03812 	DB $FF,$FF,$FF,$FF,$FE,$FE,$FC,$FC
8EB0  7FFFFFFFFFFFFEFE  03813 	DB $7F,$FF,$FF,$FF,$FF,$FF,$FE,$FE
8EB8  8000000000000000  03814 	DB $80,$00,$00,$00,$00,$00,$00,$00
8EC0  B9F9FAF2F4F4E8CD  03815 	DB $B9,$F9,$FA,$F2,$F4,$F4,$E8,$CD
8EC8  0000010103030703  03816 	DB $00,$00,$01,$01,$03,$03,$07,$03
8ED0  78724F9D3D7DF3F3  03817 	DB $78,$72,$4F,$9D,$3D,$7D,$F3,$F3
8ED8  FFFFFEFEFEFEFCFC  03818 	DB $FF,$FF,$FE,$FE,$FE,$FE,$FC,$FC
8EE0  FFF5F7FFFFFFFFFF  03819 	DB $FF,$F5,$F7,$FF,$FF,$FF,$FF,$FF
8EE8  1C08000000000000  03820 	DB $1C,$08,$00,$00,$00,$00,$00,$00
8EF0  FFFFFFF7E7EFCF9F  03821 	DB $FF,$FF,$FF,$F7,$E7,$EF,$CF,$9F
8EF8  0000000000000000  03822 	DB $00,$00,$00,$00,$00,$00,$00,$00
8F00  FFFFFFFFFFFFFFFF  03823 	DB $FF,$FF,$FF,$FF,$FF,$FF,$FF,$FF
8F08  0000000000000000  03824 	DB $00,$00,$00,$00,$00,$00,$00,$00
8F10  E3C7C7C7C7CF8F8F  03825 	DB $E3,$C7,$C7,$C7,$C7,$CF,$8F,$8F
8F18  0000000000000000  03826 	DB $00,$00,$00,$00,$00,$00,$00,$00
8F20  FEFEFFFFFFFFFFFF  03827 	DB $FE,$FE,$FF,$FF,$FF,$FF,$FF,$FF
8F28  0000000000000000  03828 	DB $00,$00,$00,$00,$00,$00,$00,$00
8F30  00000000808080C0  03829 	DB $00,$00,$00,$00,$80,$80,$80,$C0
8F38  0000000000000000  03830 	DB $00,$00,$00,$00,$00,$00,$00,$00
8F40  000000000020212C  03831 	DB $00,$00,$00,$00,$00,$20,$21,$2C
8F48  0000000000000001  03832 	DB $00,$00,$00,$00,$00,$00,$00,$01
8F50  1F7D3DF97979F3F3  03833 	DB $1F,$7D,$3D,$F9,$79,$79,$F3,$F3
8F58  3F3F7F7FFFFFFFFF  03834 	DB $3F,$3F,$7F,$7F,$FF,$FF,$FF,$FF
8F60  0000000000000000  03835 	DB $00,$00,$00,$00,$00,$00,$00,$00
8F68  0000000000000000  03836 	DB $00,$00,$00,$00,$00,$00,$00,$00
8F70  0000000000000000  03837 	DB $00,$00,$00,$00,$00,$00,$00,$00
8F78  0000000000000000  03838 	DB $00,$00,$00,$00,$00,$00,$00,$00
8F80  0000000000000000  03839 	DB $00,$00,$00,$00,$00,$00,$00,$00
8F88  0000000000000000  03840 	DB $00,$00,$00,$00,$00,$00,$00,$00
8F90  0000000000000000  03841 	DB $00,$00,$00,$00,$00,$00,$00,$00
8F98  0000000000000000  03842 	DB $00,$00,$00,$00,$00,$00,$00,$00
8FA0  0000000000000000  03843 	DB $00,$00,$00,$00,$00,$00,$00,$00
8FA8  0000000000000000  03844 	DB $00,$00,$00,$00,$00,$00,$00,$00
8FB0  0000000000000000  03845 	DB $00,$00,$00,$00,$00,$00,$00,$00
8FB8  0000000000000000  03846 	DB $00,$00,$00,$00,$00,$00,$00,$00
8FC0  0000000000000000  03847 	DB $00,$00,$00,$00,$00,$00,$00,$00
8FC8  0000000000000000  03848 	DB $00,$00,$00,$00,$00,$00,$00,$00
8FD0  0000000000000000  03849 	DB $00,$00,$00,$00,$00,$00,$00,$00
8FD8  0000000000000000  03850 	DB $00,$00,$00,$00,$00,$00,$00,$00
8FE0  0000000000000000  03851 	DB $00,$00,$00,$00,$00,$00,$00,$00
8FE8  0000000000000000  03852 	DB $00,$00,$00,$00,$00,$00,$00,$00
8FF0  0000000000000000  03853 	DB $00,$00,$00,$00,$00,$00,$00,$00
8FF8  0000000000000000  03854 	DB $00,$00,$00,$00,$00,$00,$00,$00
9000  0000000000000000  03855 	DB $00,$00,$00,$00,$00,$00,$00,$00
9008  0000000000000000  03856 	DB $00,$00,$00,$00,$00,$00,$00,$00
9010  0000000000000000  03857 	DB $00,$00,$00,$00,$00,$00,$00,$00
9018  0000000000000000  03858 	DB $00,$00,$00,$00,$00,$00,$00,$00
9020  0000000000000000  03859 	DB $00,$00,$00,$00,$00,$00,$00,$00
9028  0000000000000000  03860 	DB $00,$00,$00,$00,$00,$00,$00,$00
9030  0000000000000000  03861 	DB $00,$00,$00,$00,$00,$00,$00,$00
9038  0000000000000000  03862 	DB $00,$00,$00,$00,$00,$00,$00,$00
9040  0000000000000000  03863 	DB $00,$00,$00,$00,$00,$00,$00,$00
9048  0000000000000000  03864 	DB $00,$00,$00,$00,$00,$00,$00,$00
9050  0000000000000000  03865 	DB $00,$00,$00,$00,$00,$00,$00,$00
9058  0000000000000000  03866 	DB $00,$00,$00,$00,$00,$00,$00,$00
9060  0000000000000000  03867 	DB $00,$00,$00,$00,$00,$00,$00,$00
9068  0000000000000000  03868 	DB $00,$00,$00,$00,$00,$00,$00,$00
9070  0000000000000000  03869 	DB $00,$00,$00,$00,$00,$00,$00,$00
9078  0000000000000000  03870 	DB $00,$00,$00,$00,$00,$00,$00,$00
9080  0000000000000000  03871 	DB $00,$00,$00,$00,$00,$00,$00,$00
9088  0000000000000000  03872 	DB $00,$00,$00,$00,$00,$00,$00,$00
9090  0000000000000000  03873 	DB $00,$00,$00,$00,$00,$00,$00,$00
9098  0000000000000000  03874 	DB $00,$00,$00,$00,$00,$00,$00,$00
90A0  0000000000000000  03875 	DB $00,$00,$00,$00,$00,$00,$00,$00
90A8  0000000000000000  03876 	DB $00,$00,$00,$00,$00,$00,$00,$00
90B0  0000000000000000  03877 	DB $00,$00,$00,$00,$00,$00,$00,$00
90B8  0000000000000000  03878 	DB $00,$00,$00,$00,$00,$00,$00,$00
90C0  0000000000000000  03879 	DB $00,$00,$00,$00,$00,$00,$00,$00
90C8  0000000000000000  03880 	DB $00,$00,$00,$00,$00,$00,$00,$00
90D0  0000000000000000  03881 	DB $00,$00,$00,$00,$00,$00,$00,$00
90D8  0000000000000000  03882 	DB $00,$00,$00,$00,$00,$00,$00,$00
90E0  0000000000000000  03883 	DB $00,$00,$00,$00,$00,$00,$00,$00
90E8  0000000000000000  03884 	DB $00,$00,$00,$00,$00,$00,$00,$00
90F0  0000000000000000  03885 	DB $00,$00,$00,$00,$00,$00,$00,$00
90F8  0000000000000000  03886 	DB $00,$00,$00,$00,$00,$00,$00,$00
9100  0000000000000000  03887 	DB $00,$00,$00,$00,$00,$00,$00,$00
9108  0000000000000000  03888 	DB $00,$00,$00,$00,$00,$00,$00,$00
9110  0000000000000000  03889 	DB $00,$00,$00,$00,$00,$00,$00,$00
9118  0000000000000000  03890 	DB $00,$00,$00,$00,$00,$00,$00,$00
9120  0000000000000000  03891 	DB $00,$00,$00,$00,$00,$00,$00,$00
9128  0000000000000000  03892 	DB $00,$00,$00,$00,$00,$00,$00,$00
9130  0000000000000000  03893 	DB $00,$00,$00,$00,$00,$00,$00,$00
9138  0000000000000000  03894 	DB $00,$00,$00,$00,$00,$00,$00,$00
9140  0000000000000000  03895 	DB $00,$00,$00,$00,$00,$00,$00,$00
9148  0000000000000000  03896 	DB $00,$00,$00,$00,$00,$00,$00,$00
9150  0000000000000000  03897 	DB $00,$00,$00,$00,$00,$00,$00,$00
9158  0000000000000000  03898 	DB $00,$00,$00,$00,$00,$00,$00,$00
9160  0000000000000000  03899 	DB $00,$00,$00,$00,$00,$00,$00,$00
9168  0000000000000000  03900 	DB $00,$00,$00,$00,$00,$00,$00,$00
9170  0000000000000000  03901 	DB $00,$00,$00,$00,$00,$00,$00,$00
9178  0000000000000000  03902 	DB $00,$00,$00,$00,$00,$00,$00,$00
9180  0000000000000000  03903 	DB $00,$00,$00,$00,$00,$00,$00,$00
9188  0000000000000000  03904 	DB $00,$00,$00,$00,$00,$00,$00,$00
9190  0000000000000000  03905 	DB $00,$00,$00,$00,$00,$00,$00,$00
9198  0000000000000000  03906 	DB $00,$00,$00,$00,$00,$00,$00,$00
91A0  0000000000000000  03907 	DB $00,$00,$00,$00,$00,$00,$00,$00
91A8  0000000000000000  03908 	DB $00,$00,$00,$00,$00,$00,$00,$00
91B0  0000000000000000  03909 	DB $00,$00,$00,$00,$00,$00,$00,$00
91B8  0000000000000000  03910 	DB $00,$00,$00,$00,$00,$00,$00,$00
91C0  0000000000000000  03911 	DB $00,$00,$00,$00,$00,$00,$00,$00
91C8  0000000000000000  03912 	DB $00,$00,$00,$00,$00,$00,$00,$00
91D0  0000000000000000  03913 	DB $00,$00,$00,$00,$00,$00,$00,$00
91D8  0000000000000000  03914 	DB $00,$00,$00,$00,$00,$00,$00,$00
91E0  0000000000000000  03915 	DB $00,$00,$00,$00,$00,$00,$00,$00
91E8  0000000000000000  03916 	DB $00,$00,$00,$00,$00,$00,$00,$00
91F0  0000000000000000  03917 	DB $00,$00,$00,$00,$00,$00,$00,$00
91F8  0000000000000000  03918 	DB $00,$00,$00,$00,$00,$00,$00,$00
9200  0000000000000000  03919 	DB $00,$00,$00,$00,$00,$00,$00,$00
9208  0000000000000000  03920 	DB $00,$00,$00,$00,$00,$00,$00,$00
9210  0000000000000000  03921 	DB $00,$00,$00,$00,$00,$00,$00,$00
9218  0000000000000000  03922 	DB $00,$00,$00,$00,$00,$00,$00,$00
9220  0000000000000000  03923 	DB $00,$00,$00,$00,$00,$00,$00,$00
9228  0000000000000000  03924 	DB $00,$00,$00,$00,$00,$00,$00,$00
9230  0000000000000000  03925 	DB $00,$00,$00,$00,$00,$00,$00,$00
9238  0000000000000000  03926 	DB $00,$00,$00,$00,$00,$00,$00,$00
9240  0000000000000000  03927 	DB $00,$00,$00,$00,$00,$00,$00,$00
9248  0000000000000000  03928 	DB $00,$00,$00,$00,$00,$00,$00,$00
9250  0000000000000000  03929 	DB $00,$00,$00,$00,$00,$00,$00,$00
9258  0000000000000000  03930 	DB $00,$00,$00,$00,$00,$00,$00,$00
9260  0000000000000000  03931 	DB $00,$00,$00,$00,$00,$00,$00,$00
9268  0000000000000000  03932 	DB $00,$00,$00,$00,$00,$00,$00,$00
9270  0000000000000000  03933 	DB $00,$00,$00,$00,$00,$00,$00,$00
9278  0000000000000000  03934 	DB $00,$00,$00,$00,$00,$00,$00,$00
9280  0000000000000000  03935 	DB $00,$00,$00,$00,$00,$00,$00,$00
9288  0000000000000000  03936 	DB $00,$00,$00,$00,$00,$00,$00,$00
9290  0000000000000000  03937 	DB $00,$00,$00,$00,$00,$00,$00,$00
9298  0000000000000000  03938 	DB $00,$00,$00,$00,$00,$00,$00,$00
92A0  0000000000000000  03939 	DB $00,$00,$00,$00,$00,$00,$00,$00
92A8  0000000000000000  03940 	DB $00,$00,$00,$00,$00,$00,$00,$00
92B0  0000000000000000  03941 	DB $00,$00,$00,$00,$00,$00,$00,$00
92B8  0000000000000000  03942 	DB $00,$00,$00,$00,$00,$00,$00,$00
92C0  0000000000000000  03943 	DB $00,$00,$00,$00,$00,$00,$00,$00
92C8  0000000000000000  03944 	DB $00,$00,$00,$00,$00,$00,$00,$00
92D0  0000000000000000  03945 	DB $00,$00,$00,$00,$00,$00,$00,$00
92D8  0000000000000000  03946 	DB $00,$00,$00,$00,$00,$00,$00,$00
92E0  0000000000000000  03947 	DB $00,$00,$00,$00,$00,$00,$00,$00
92E8  0000000000000000  03948 	DB $00,$00,$00,$00,$00,$00,$00,$00
92F0  0000000000000000  03949 	DB $00,$00,$00,$00,$00,$00,$00,$00
92F8  0000000000000000  03950 	DB $00,$00,$00,$00,$00,$00,$00,$00
9300  0000000000000000  03951 	DB $00,$00,$00,$00,$00,$00,$00,$00
9308  0000000000000000  03952 	DB $00,$00,$00,$00,$00,$00,$00,$00
9310  0000000000000000  03953 	DB $00,$00,$00,$00,$00,$00,$00,$00
9318  0000000000000000  03954 	DB $00,$00,$00,$00,$00,$00,$00,$00
9320  0000000000000000  03955 	DB $00,$00,$00,$00,$00,$00,$00,$00
9328  0000000000000000  03956 	DB $00,$00,$00,$00,$00,$00,$00,$00
9330  0000000000000000  03957 	DB $00,$00,$00,$00,$00,$00,$00,$00
9338  0000000000000000  03958 	DB $00,$00,$00,$00,$00,$00,$00,$00
9340  0000000000000000  03959 	DB $00,$00,$00,$00,$00,$00,$00,$00
9348  0000000000000000  03960 	DB $00,$00,$00,$00,$00,$00,$00,$00
9350  0000000000000000  03961 	DB $00,$00,$00,$00,$00,$00,$00,$00
9358  0000000000000000  03962 	DB $00,$00,$00,$00,$00,$00,$00,$00
9360  0000000000000000  03963 	DB $00,$00,$00,$00,$00,$00,$00,$00
9368  0000000000000000  03964 	DB $00,$00,$00,$00,$00,$00,$00,$00
9370  0000000000000000  03965 	DB $00,$00,$00,$00,$00,$00,$00,$00
9378  0000000000000000  03966 	DB $00,$00,$00,$00,$00,$00,$00,$00
9380  0000000000000000  03967 	DB $00,$00,$00,$00,$00,$00,$00,$00
9388  0000000000000000  03968 	DB $00,$00,$00,$00,$00,$00,$00,$00
9390  0000000000000000  03969 	DB $00,$00,$00,$00,$00,$00,$00,$00
9398  0000000000000000  03970 	DB $00,$00,$00,$00,$00,$00,$00,$00
93A0  0000000000000000  03971 	DB $00,$00,$00,$00,$00,$00,$00,$00
93A8  0000000000000000  03972 	DB $00,$00,$00,$00,$00,$00,$00,$00
93B0  0000000000000000  03973 	DB $00,$00,$00,$00,$00,$00,$00,$00
93B8  0000000000000000  03974 	DB $00,$00,$00,$00,$00,$00,$00,$00
93C0  0000000000000000  03975 	DB $00,$00,$00,$00,$00,$00,$00,$00
93C8  0000000000000000  03976 	DB $00,$00,$00,$00,$00,$00,$00,$00
93D0  0000000000000000  03977 	DB $00,$00,$00,$00,$00,$00,$00,$00
93D8  0000000000000000  03978 	DB $00,$00,$00,$00,$00,$00,$00,$00
93E0  0000000000000000  03979 	DB $00,$00,$00,$00,$00,$00,$00,$00
93E8  0000000000000000  03980 	DB $00,$00,$00,$00,$00,$00,$00,$00
93F0  0000000000000000  03981 	DB $00,$00,$00,$00,$00,$00,$00,$00
93F8  0000000000000000  03982 	DB $00,$00,$00,$00,$00,$00,$00,$00
9400  0000000000000000  03983 	DB $00,$00,$00,$00,$00,$00,$00,$00
9408  0000000000000000  03984 	DB $00,$00,$00,$00,$00,$00,$00,$00
9410  0000000000000000  03985 	DB $00,$00,$00,$00,$00,$00,$00,$00
9418  0000000000000000  03986 	DB $00,$00,$00,$00,$00,$00,$00,$00
9420  0000000000000000  03987 	DB $00,$00,$00,$00,$00,$00,$00,$00
9428  0000000000000000  03988 	DB $00,$00,$00,$00,$00,$00,$00,$00
9430  0000000000000000  03989 	DB $00,$00,$00,$00,$00,$00,$00,$00
9438  0000000000000000  03990 	DB $00,$00,$00,$00,$00,$00,$00,$00
9440  0000000000000000  03991 	DB $00,$00,$00,$00,$00,$00,$00,$00
9448  0000000000000000  03992 	DB $00,$00,$00,$00,$00,$00,$00,$00
9450  0000000000000000  03993 	DB $00,$00,$00,$00,$00,$00,$00,$00
9458  0000000000000000  03994 	DB $00,$00,$00,$00,$00,$00,$00,$00
9460  0000000000000000  03995 	DB $00,$00,$00,$00,$00,$00,$00,$00
9468  0000000000000000  03996 	DB $00,$00,$00,$00,$00,$00,$00,$00
9470  0000000000000000  03997 	DB $00,$00,$00,$00,$00,$00,$00,$00
9478  0000000000000000  03998 	DB $00,$00,$00,$00,$00,$00,$00,$00
9480  0000000000000000  03999 	DB $00,$00,$00,$00,$00,$00,$00,$00
9488  0000000000000000  04000 	DB $00,$00,$00,$00,$00,$00,$00,$00
9490  0000000000000000  04001 	DB $00,$00,$00,$00,$00,$00,$00,$00
9498  0000000000000000  04002 	DB $00,$00,$00,$00,$00,$00,$00,$00
94A0  0000000000000000  04003 	DB $00,$00,$00,$00,$00,$00,$00,$00
94A8  0000000000000000  04004 	DB $00,$00,$00,$00,$00,$00,$00,$00
94B0  0000000000000000  04005 	DB $00,$00,$00,$00,$00,$00,$00,$00
94B8  0000000000000000  04006 	DB $00,$00,$00,$00,$00,$00,$00,$00
94C0  0000000000000000  04007 	DB $00,$00,$00,$00,$00,$00,$00,$00
94C8  0000000000000000  04008 	DB $00,$00,$00,$00,$00,$00,$00,$00
94D0  0000000000000000  04009 	DB $00,$00,$00,$00,$00,$00,$00,$00
94D8  0000000000000000  04010 	DB $00,$00,$00,$00,$00,$00,$00,$00
94E0  0000000000000000  04011 	DB $00,$00,$00,$00,$00,$00,$00,$00
94E8  0000000000000000  04012 	DB $00,$00,$00,$00,$00,$00,$00,$00
94F0  0000000000000000  04013 	DB $00,$00,$00,$00,$00,$00,$00,$00
94F8  0000000000000000  04014 	DB $00,$00,$00,$00,$00,$00,$00,$00
9500  0000000000000000  04015 	DB $00,$00,$00,$00,$00,$00,$00,$00
9508  0000000000000000  04016 	DB $00,$00,$00,$00,$00,$00,$00,$00
9510  0000000000000000  04017 	DB $00,$00,$00,$00,$00,$00,$00,$00
9518  0000000000000000  04018 	DB $00,$00,$00,$00,$00,$00,$00,$00
9520  0000000000000000  04019 	DB $00,$00,$00,$00,$00,$00,$00,$00
9528  0000000000000000  04020 	DB $00,$00,$00,$00,$00,$00,$00,$00
9530  0000000000000000  04021 	DB $00,$00,$00,$00,$00,$00,$00,$00
9538  0000000000000000  04022 	DB $00,$00,$00,$00,$00,$00,$00,$00
9540  0000000000000000  04023 	DB $00,$00,$00,$00,$00,$00,$00,$00
9548  0000000000000000  04024 	DB $00,$00,$00,$00,$00,$00,$00,$00
9550  0000000000000000  04025 	DB $00,$00,$00,$00,$00,$00,$00,$00
9558  0000000000000000  04026 	DB $00,$00,$00,$00,$00,$00,$00,$00
9560  0000000000000000  04027 	DB $00,$00,$00,$00,$00,$00,$00,$00
9568  0000000000000000  04028 	DB $00,$00,$00,$00,$00,$00,$00,$00
9570  0000000000000000  04029 	DB $00,$00,$00,$00,$00,$00,$00,$00
9578  0000000000000000  04030 	DB $00,$00,$00,$00,$00,$00,$00,$00
9580  0000000000000000  04031 	DB $00,$00,$00,$00,$00,$00,$00,$00
9588  0000000000000000  04032 	DB $00,$00,$00,$00,$00,$00,$00,$00
9590  0000000000000000  04033 	DB $00,$00,$00,$00,$00,$00,$00,$00
9598  0000000000000000  04034 	DB $00,$00,$00,$00,$00,$00,$00,$00
95A0  0000000000000000  04035 	DB $00,$00,$00,$00,$00,$00,$00,$00
95A8  0000000000000000  04036 	DB $00,$00,$00,$00,$00,$00,$00,$00
95B0  0000000000000000  04037 	DB $00,$00,$00,$00,$00,$00,$00,$00
95B8  0000000000000000  04038 	DB $00,$00,$00,$00,$00,$00,$00,$00
95C0  0000000000000000  04039 	DB $00,$00,$00,$00,$00,$00,$00,$00
95C8  0000000000000000  04040 	DB $00,$00,$00,$00,$00,$00,$00,$00
95D0  0000000000000000  04041 	DB $00,$00,$00,$00,$00,$00,$00,$00
95D8  0000000000000000  04042 	DB $00,$00,$00,$00,$00,$00,$00,$00
95E0  0000000000000000  04043 	DB $00,$00,$00,$00,$00,$00,$00,$00
95E8  0000000000000000  04044 	DB $00,$00,$00,$00,$00,$00,$00,$00
95F0  0000000000000000  04045 	DB $00,$00,$00,$00,$00,$00,$00,$00
95F8  0000000000000000  04046 	DB $00,$00,$00,$00,$00,$00,$00,$00
9600  0000000000000000  04047 	DB $00,$00,$00,$00,$00,$00,$00,$00
9608  0000000000000000  04048 	DB $00,$00,$00,$00,$00,$00,$00,$00
9610  0000000000000000  04049 	DB $00,$00,$00,$00,$00,$00,$00,$00
9618  0000000000000000  04050 	DB $00,$00,$00,$00,$00,$00,$00,$00
9620  0000000000000000  04051 	DB $00,$00,$00,$00,$00,$00,$00,$00
9628  0000000000000000  04052 	DB $00,$00,$00,$00,$00,$00,$00,$00
9630  0000000000000000  04053 	DB $00,$00,$00,$00,$00,$00,$00,$00
9638  0000000000000000  04054 	DB $00,$00,$00,$00,$00,$00,$00,$00
9640  0000000000000000  04055 	DB $00,$00,$00,$00,$00,$00,$00,$00
9648  0000000000000000  04056 	DB $00,$00,$00,$00,$00,$00,$00,$00
9650  0000000000000000  04057 	DB $00,$00,$00,$00,$00,$00,$00,$00
9658  0000000000000000  04058 	DB $00,$00,$00,$00,$00,$00,$00,$00
9660  0000000000000000  04059 	DB $00,$00,$00,$00,$00,$00,$00,$00
9668  0000000000000000  04060 	DB $00,$00,$00,$00,$00,$00,$00,$00
9670  0000000000000000  04061 	DB $00,$00,$00,$00,$00,$00,$00,$00
9678  0000000000000000  04062 	DB $00,$00,$00,$00,$00,$00,$00,$00
9680  0000000000000000  04063 	DB $00,$00,$00,$00,$00,$00,$00,$00
9688  0000000000000000  04064 	DB $00,$00,$00,$00,$00,$00,$00,$00
9690  0000000000000000  04065 	DB $00,$00,$00,$00,$00,$00,$00,$00
9698  0000000000000000  04066 	DB $00,$00,$00,$00,$00,$00,$00,$00
96A0  0000000000000000  04067 	DB $00,$00,$00,$00,$00,$00,$00,$00
96A8  0000000000000000  04068 	DB $00,$00,$00,$00,$00,$00,$00,$00
96B0  0000000000000000  04069 	DB $00,$00,$00,$00,$00,$00,$00,$00
96B8  0000000000000000  04070 	DB $00,$00,$00,$00,$00,$00,$00,$00
96C0  0000000000000000  04071 	DB $00,$00,$00,$00,$00,$00,$00,$00
96C8  0000000000000000  04072 	DB $00,$00,$00,$00,$00,$00,$00,$00
96D0  0000000000000000  04073 	DB $00,$00,$00,$00,$00,$00,$00,$00
96D8  0000000000000000  04074 	DB $00,$00,$00,$00,$00,$00,$00,$00
96E0  0000000000000000  04075 	DB $00,$00,$00,$00,$00,$00,$00,$00
96E8  0000000000000000  04076 	DB $00,$00,$00,$00,$00,$00,$00,$00
96F0  0000000000000000  04077 	DB $00,$00,$00,$00,$00,$00,$00,$00
96F8  0000000000000000  04078 	DB $00,$00,$00,$00,$00,$00,$00,$00
9700  0000000000000000  04079 	DB $00,$00,$00,$00,$00,$00,$00,$00
9708  0000000000000000  04080 	DB $00,$00,$00,$00,$00,$00,$00,$00
9710  0000000000000000  04081 	DB $00,$00,$00,$00,$00,$00,$00,$00
9718  0000000000000000  04082 	DB $00,$00,$00,$00,$00,$00,$00,$00
9720  0000000000000000  04083 	DB $00,$00,$00,$00,$00,$00,$00,$00
9728  0000000000000000  04084 	DB $00,$00,$00,$00,$00,$00,$00,$00
9730  0000000000000000  04085 	DB $00,$00,$00,$00,$00,$00,$00,$00
9738  0000000000000000  04086 	DB $00,$00,$00,$00,$00,$00,$00,$00
9740  0000000000000000  04087 	DB $00,$00,$00,$00,$00,$00,$00,$00
9748  0000000000000000  04088 	DB $00,$00,$00,$00,$00,$00,$00,$00
9750  0000000000000000  04089 	DB $00,$00,$00,$00,$00,$00,$00,$00
9758  0000000000000000  04090 	DB $00,$00,$00,$00,$00,$00,$00,$00
9760  0000000000000000  04091 	DB $00,$00,$00,$00,$00,$00,$00,$00
9768  0000000000000000  04092 	DB $00,$00,$00,$00,$00,$00,$00,$00
9770  0000000000000000  04093 	DB $00,$00,$00,$00,$00,$00,$00,$00
9778  0000000000000000  04094 	DB $00,$00,$00,$00,$00,$00,$00,$00
9780  0000000000000000  04095 	DB $00,$00,$00,$00,$00,$00,$00,$00
9788  0000000000000000  04096 	DB $00,$00,$00,$00,$00,$00,$00,$00
9790  0000000000000000  04097 	DB $00,$00,$00,$00,$00,$00,$00,$00
9798  0000000000000000  04098 	DB $00,$00,$00,$00,$00,$00,$00,$00
97A0  0000000000000000  04099 	DB $00,$00,$00,$00,$00,$00,$00,$00
97A8  0000000000000000  04100 	DB $00,$00,$00,$00,$00,$00,$00,$00
97B0  0000000000000000  04101 	DB $00,$00,$00,$00,$00,$00,$00,$00
97B8  0000000000000000  04102 	DB $00,$00,$00,$00,$00,$00,$00,$00
97C0  0000000000000000  04103 	DB $00,$00,$00,$00,$00,$00,$00,$00
97C8  0000000000000000  04104 	DB $00,$00,$00,$00,$00,$00,$00,$00
97D0  0000000000000000  04105 	DB $00,$00,$00,$00,$00,$00,$00,$00
97D8  0000000000000000  04106 	DB $00,$00,$00,$00,$00,$00,$00,$00
97E0  0000000000000000  04107 	DB $00,$00,$00,$00,$00,$00,$00,$00
97E8  0000000000000000  04108 	DB $00,$00,$00,$00,$00,$00,$00,$00
97F0  0000000000000000  04109 	DB $00,$00,$00,$00,$00,$00,$00,$00
97F8  0000000000000000  04110 	DB $00,$00,$00,$00,$00,$00,$00,$00
9800  0000000000000000  04111 	DB $00,$00,$00,$00,$00,$00,$00,$00
9808  0000000000000000  04112 	DB $00,$00,$00,$00,$00,$00,$00,$00
9810  0000000000000000  04113 	DB $00,$00,$00,$00,$00,$00,$00,$00
9818  0000000000000000  04114 	DB $00,$00,$00,$00,$00,$00,$00,$00
9820  0000000000000000  04115 	DB $00,$00,$00,$00,$00,$00,$00,$00
9828  0000000000000000  04116 	DB $00,$00,$00,$00,$00,$00,$00,$00
9830  0000000000000000  04117 	DB $00,$00,$00,$00,$00,$00,$00,$00
9838  0000000000000000  04118 	DB $00,$00,$00,$00,$00,$00,$00,$00
9840  0000000000000000  04119 	DB $00,$00,$00,$00,$00,$00,$00,$00
9848  0000000000000000  04120 	DB $00,$00,$00,$00,$00,$00,$00,$00
9850  0000000000000000  04121 	DB $00,$00,$00,$00,$00,$00,$00,$00
9858  0000000000000000  04122 	DB $00,$00,$00,$00,$00,$00,$00,$00
9860  0000000000000000  04123 	DB $00,$00,$00,$00,$00,$00,$00,$00
9868  0000000000000000  04124 	DB $00,$00,$00,$00,$00,$00,$00,$00
9870  0000000000000000  04125 	DB $00,$00,$00,$00,$00,$00,$00,$00
9878  0000000000000000  04126 	DB $00,$00,$00,$00,$00,$00,$00,$00
9880  0000000000000000  04127 	DB $00,$00,$00,$00,$00,$00,$00,$00
9888  0000000000000000  04128 	DB $00,$00,$00,$00,$00,$00,$00,$00
9890  0000000000000000  04129 	DB $00,$00,$00,$00,$00,$00,$00,$00
9898  0000000000000000  04130 	DB $00,$00,$00,$00,$00,$00,$00,$00
98A0  0000000000000000  04131 	DB $00,$00,$00,$00,$00,$00,$00,$00
98A8  0000000000000000  04132 	DB $00,$00,$00,$00,$00,$00,$00,$00
98B0  0000000000000000  04133 	DB $00,$00,$00,$00,$00,$00,$00,$00
98B8  0000000000000000  04134 	DB $00,$00,$00,$00,$00,$00,$00,$00
98C0  0000000000000000  04135 	DB $00,$00,$00,$00,$00,$00,$00,$00
98C8  0000000000000000  04136 	DB $00,$00,$00,$00,$00,$00,$00,$00
98D0  0000000000000000  04137 	DB $00,$00,$00,$00,$00,$00,$00,$00
98D8  0000000000000000  04138 	DB $00,$00,$00,$00,$00,$00,$00,$00
98E0  0000000000000000  04139 	DB $00,$00,$00,$00,$00,$00,$00,$00
98E8  0000000000000000  04140 	DB $00,$00,$00,$00,$00,$00,$00,$00
98F0  0000000000000000  04141 	DB $00,$00,$00,$00,$00,$00,$00,$00
98F8  0000000000000000  04142 	DB $00,$00,$00,$00,$00,$00,$00,$00
9900  0000000000000000  04143 	DB $00,$00,$00,$00,$00,$00,$00,$00
9908  0000000000000000  04144 	DB $00,$00,$00,$00,$00,$00,$00,$00
9910  0000000000000000  04145 	DB $00,$00,$00,$00,$00,$00,$00,$00
9918  0000000000000000  04146 	DB $00,$00,$00,$00,$00,$00,$00,$00
9920  0000000000000000  04147 	DB $00,$00,$00,$00,$00,$00,$00,$00
9928  0000000000000000  04148 	DB $00,$00,$00,$00,$00,$00,$00,$00
9930  0000000000000000  04149 	DB $00,$00,$00,$00,$00,$00,$00,$00
9938  0000000000000000  04150 	DB $00,$00,$00,$00,$00,$00,$00,$00
9940  0000000000000000  04151 	DB $00,$00,$00,$00,$00,$00,$00,$00
9948  0000000000000000  04152 	DB $00,$00,$00,$00,$00,$00,$00,$00
9950  0000000000000000  04153 	DB $00,$00,$00,$00,$00,$00,$00,$00
9958  0000000000000000  04154 	DB $00,$00,$00,$00,$00,$00,$00,$00
9960  0000000000000000  04155 	DB $00,$00,$00,$00,$00,$00,$00,$00
9968  0000000000000000  04156 	DB $00,$00,$00,$00,$00,$00,$00,$00
9970  0000000000000000  04157 	DB $00,$00,$00,$00,$00,$00,$00,$00
9978  0000000000000000  04158 	DB $00,$00,$00,$00,$00,$00,$00,$00
9980  0000000000000000  04159 	DB $00,$00,$00,$00,$00,$00,$00,$00
9988  0000000000000000  04160 	DB $00,$00,$00,$00,$00,$00,$00,$00
9990  0000000000000000  04161 	DB $00,$00,$00,$00,$00,$00,$00,$00
9998  0000000000000000  04162 	DB $00,$00,$00,$00,$00,$00,$00,$00
99A0  0000000000000000  04163 	DB $00,$00,$00,$00,$00,$00,$00,$00
99A8  0000000000000000  04164 	DB $00,$00,$00,$00,$00,$00,$00,$00
99B0  0000000000000000  04165 	DB $00,$00,$00,$00,$00,$00,$00,$00
99B8  0000000000000000  04166 	DB $00,$00,$00,$00,$00,$00,$00,$00
99C0  0000000000000000  04167 	DB $00,$00,$00,$00,$00,$00,$00,$00
99C8  0000000000000000  04168 	DB $00,$00,$00,$00,$00,$00,$00,$00
99D0  0000000000000000  04169 	DB $00,$00,$00,$00,$00,$00,$00,$00
99D8  0000000000000000  04170 	DB $00,$00,$00,$00,$00,$00,$00,$00
99E0  0000000000000000  04171 	DB $00,$00,$00,$00,$00,$00,$00,$00
99E8  0000000000000000  04172 	DB $00,$00,$00,$00,$00,$00,$00,$00
99F0  0000000000000000  04173 	DB $00,$00,$00,$00,$00,$00,$00,$00
99F8  0000000000000000  04174 	DB $00,$00,$00,$00,$00,$00,$00,$00
9A00  0000000000000000  04175 	DB $00,$00,$00,$00,$00,$00,$00,$00
9A08  0000000000000000  04176 	DB $00,$00,$00,$00,$00,$00,$00,$00
9A10  0000000000000000  04177 	DB $00,$00,$00,$00,$00,$00,$00,$00
9A18  0000000000000000  04178 	DB $00,$00,$00,$00,$00,$00,$00,$00
9A20  0000000000000000  04179 	DB $00,$00,$00,$00,$00,$00,$00,$00
9A28  0000000000000000  04180 	DB $00,$00,$00,$00,$00,$00,$00,$00
9A30  0000000000000000  04181 	DB $00,$00,$00,$00,$00,$00,$00,$00
9A38  0000000000000000  04182 	DB $00,$00,$00,$00,$00,$00,$00,$00
9A40  0000000000000000  04183 	DB $00,$00,$00,$00,$00,$00,$00,$00
9A48  0000000000000000  04184 	DB $00,$00,$00,$00,$00,$00,$00,$00
9A50  0000000000000000  04185 	DB $00,$00,$00,$00,$00,$00,$00,$00
9A58  0000000000000000  04186 	DB $00,$00,$00,$00,$00,$00,$00,$00
9A60  0000000000000000  04187 	DB $00,$00,$00,$00,$00,$00,$00,$00
9A68  0000000000000000  04188 	DB $00,$00,$00,$00,$00,$00,$00,$00
9A70  0000000000000000  04189 	DB $00,$00,$00,$00,$00,$00,$00,$00
9A78  0000000000000000  04190 	DB $00,$00,$00,$00,$00,$00,$00,$00
9A80  0000000000000000  04191 	DB $00,$00,$00,$00,$00,$00,$00,$00
9A88  0000000000000000  04192 	DB $00,$00,$00,$00,$00,$00,$00,$00
9A90  0000000000000000  04193 	DB $00,$00,$00,$00,$00,$00,$00,$00
9A98  0000000000000000  04194 	DB $00,$00,$00,$00,$00,$00,$00,$00
9AA0  0000000000000000  04195 	DB $00,$00,$00,$00,$00,$00,$00,$00
9AA8  0000000000000000  04196 	DB $00,$00,$00,$00,$00,$00,$00,$00
9AB0  0000000000000000  04197 	DB $00,$00,$00,$00,$00,$00,$00,$00
9AB8  0000000000000000  04198 	DB $00,$00,$00,$00,$00,$00,$00,$00
9AC0  0000000000000000  04199 	DB $00,$00,$00,$00,$00,$00,$00,$00
9AC8  0000000000000000  04200 	DB $00,$00,$00,$00,$00,$00,$00,$00
9AD0  0000000000000000  04201 	DB $00,$00,$00,$00,$00,$00,$00,$00
9AD8  0000000000000000  04202 	DB $00,$00,$00,$00,$00,$00,$00,$00
9AE0  0000000000000000  04203 	DB $00,$00,$00,$00,$00,$00,$00,$00
9AE8  0000000000000000  04204 	DB $00,$00,$00,$00,$00,$00,$00,$00
9AF0  0000000000000000  04205 	DB $00,$00,$00,$00,$00,$00,$00,$00
9AF8  0000000000000000  04206 	DB $00,$00,$00,$00,$00,$00,$00,$00
9B00  0000000000000000  04207 	DB $00,$00,$00,$00,$00,$00,$00,$00
9B08  0000000000000000  04208 	DB $00,$00,$00,$00,$00,$00,$00,$00
9B10  0000000000000000  04209 	DB $00,$00,$00,$00,$00,$00,$00,$00
9B18  0000000000000000  04210 	DB $00,$00,$00,$00,$00,$00,$00,$00
9B20  0000000000000000  04211 	DB $00,$00,$00,$00,$00,$00,$00,$00
9B28  0000000000000000  04212 	DB $00,$00,$00,$00,$00,$00,$00,$00
9B30  0000000000000000  04213 	DB $00,$00,$00,$00,$00,$00,$00,$00
9B38  0000000000000000  04214 	DB $00,$00,$00,$00,$00,$00,$00,$00
9B40  0000000000000000  04215 	DB $00,$00,$00,$00,$00,$00,$00,$00
9B48  0000000000000000  04216 	DB $00,$00,$00,$00,$00,$00,$00,$00
9B50  0000000000000000  04217 	DB $00,$00,$00,$00,$00,$00,$00,$00
9B58  0000000000000000  04218 	DB $00,$00,$00,$00,$00,$00,$00,$00
9B60  0000000000000000  04219 	DB $00,$00,$00,$00,$00,$00,$00,$00
9B68  0000000000000000  04220 	DB $00,$00,$00,$00,$00,$00,$00,$00
9B70  0000000000000000  04221 	DB $00,$00,$00,$00,$00,$00,$00,$00
9B78  0000000000000000  04222 	DB $00,$00,$00,$00,$00,$00,$00,$00
9B80  0000000000000000  04223 	DB $00,$00,$00,$00,$00,$00,$00,$00
9B88  0000000000000000  04224 	DB $00,$00,$00,$00,$00,$00,$00,$00
9B90  0000000000000000  04225 	DB $00,$00,$00,$00,$00,$00,$00,$00
9B98  0000000000000000  04226 	DB $00,$00,$00,$00,$00,$00,$00,$00
9BA0  0000000000000000  04227 	DB $00,$00,$00,$00,$00,$00,$00,$00
9BA8  0000000000000000  04228 	DB $00,$00,$00,$00,$00,$00,$00,$00
9BB0  0000000000000000  04229 	DB $00,$00,$00,$00,$00,$00,$00,$00
9BB8  0000000000000000  04230 	DB $00,$00,$00,$00,$00,$00,$00,$00
9BC0  0000000000000000  04231 	DB $00,$00,$00,$00,$00,$00,$00,$00
9BC8  0000000000000000  04232 	DB $00,$00,$00,$00,$00,$00,$00,$00
9BD0  0000000000000000  04233 	DB $00,$00,$00,$00,$00,$00,$00,$00
9BD8  0000000000000000  04234 	DB $00,$00,$00,$00,$00,$00,$00,$00
9BE0  0000000000000000  04235 	DB $00,$00,$00,$00,$00,$00,$00,$00
9BE8  0000000000000000  04236 	DB $00,$00,$00,$00,$00,$00,$00,$00
9BF0  0000000000000000  04237 	DB $00,$00,$00,$00,$00,$00,$00,$00
9BF8  0000000000000000  04238 	DB $00,$00,$00,$00,$00,$00,$00,$00
9C00  0000000000000000  04239 	DB $00,$00,$00,$00,$00,$00,$00,$00
9C08  0000000000000000  04240 	DB $00,$00,$00,$00,$00,$00,$00,$00
9C10  0000000000000000  04241 	DB $00,$00,$00,$00,$00,$00,$00,$00
9C18  0000000000000000  04242 	DB $00,$00,$00,$00,$00,$00,$00,$00
9C20  0000000000000000  04243 	DB $00,$00,$00,$00,$00,$00,$00,$00
9C28  0000000000000000  04244 	DB $00,$00,$00,$00,$00,$00,$00,$00
9C30  0000000000000000  04245 	DB $00,$00,$00,$00,$00,$00,$00,$00
9C38  0000000000000000  04246 	DB $00,$00,$00,$00,$00,$00,$00,$00
9C40  0000000000000000  04247 	DB $00,$00,$00,$00,$00,$00,$00,$00
9C48  0000000000000000  04248 	DB $00,$00,$00,$00,$00,$00,$00,$00
9C50  0000000000000000  04249 	DB $00,$00,$00,$00,$00,$00,$00,$00
9C58  0000000000000000  04250 	DB $00,$00,$00,$00,$00,$00,$00,$00
9C60  0000000000000000  04251 	DB $00,$00,$00,$00,$00,$00,$00,$00
9C68  0000000000000000  04252 	DB $00,$00,$00,$00,$00,$00,$00,$00
9C70  0000000000000000  04253 	DB $00,$00,$00,$00,$00,$00,$00,$00
9C78  0000000000000000  04254 	DB $00,$00,$00,$00,$00,$00,$00,$00
9C80  0000000000000000  04255 	DB $00,$00,$00,$00,$00,$00,$00,$00
9C88  0000000000000000  04256 	DB $00,$00,$00,$00,$00,$00,$00,$00
9C90  0000000000000000  04257 	DB $00,$00,$00,$00,$00,$00,$00,$00
9C98  0000000000000000  04258 	DB $00,$00,$00,$00,$00,$00,$00,$00
9CA0  0000000000000000  04259 	DB $00,$00,$00,$00,$00,$00,$00,$00
9CA8  0000000000000000  04260 	DB $00,$00,$00,$00,$00,$00,$00,$00
9CB0  0000000000000000  04261 	DB $00,$00,$00,$00,$00,$00,$00,$00
9CB8  0000000000000000  04262 	DB $00,$00,$00,$00,$00,$00,$00,$00
9CC0  0000000000000000  04263 	DB $00,$00,$00,$00,$00,$00,$00,$00
9CC8  0000000000000000  04264 	DB $00,$00,$00,$00,$00,$00,$00,$00
9CD0  0000000000000000  04265 	DB $00,$00,$00,$00,$00,$00,$00,$00
9CD8  0000000000000000  04266 	DB $00,$00,$00,$00,$00,$00,$00,$00
9CE0  0000000000000000  04267 	DB $00,$00,$00,$00,$00,$00,$00,$00
9CE8  0000000000000000  04268 	DB $00,$00,$00,$00,$00,$00,$00,$00
9CF0  0000000000000000  04269 	DB $00,$00,$00,$00,$00,$00,$00,$00
9CF8  0000000000000000  04270 	DB $00,$00,$00,$00,$00,$00,$00,$00
9D00  0000000000000000  04271 	DB $00,$00,$00,$00,$00,$00,$00,$00
9D08  0000000000000000  04272 	DB $00,$00,$00,$00,$00,$00,$00,$00
9D10  0000000000000000  04273 	DB $00,$00,$00,$00,$00,$00,$00,$00
9D18  0000000000000000  04274 	DB $00,$00,$00,$00,$00,$00,$00,$00
9D20  0000000000000000  04275 	DB $00,$00,$00,$00,$00,$00,$00,$00
9D28  0000000000000000  04276 	DB $00,$00,$00,$00,$00,$00,$00,$00
9D30  0000000000000000  04277 	DB $00,$00,$00,$00,$00,$00,$00,$00
9D38  0000000000000000  04278 	DB $00,$00,$00,$00,$00,$00,$00,$00
9D40  0000000000000000  04279 	DB $00,$00,$00,$00,$00,$00,$00,$00
9D48  0000000000000000  04280 	DB $00,$00,$00,$00,$00,$00,$00,$00
9D50  0000000000000000  04281 	DB $00,$00,$00,$00,$00,$00,$00,$00
9D58  0000000000000000  04282 	DB $00,$00,$00,$00,$00,$00,$00,$00
9D60  0000000000000000  04283 	DB $00,$00,$00,$00,$00,$00,$00,$00
9D68  0000000000000000  04284 	DB $00,$00,$00,$00,$00,$00,$00,$00
9D70  0000000000000000  04285 	DB $00,$00,$00,$00,$00,$00,$00,$00
9D78  0000000000000000  04286 	DB $00,$00,$00,$00,$00,$00,$00,$00
9D80  0000000000000000  04287 	DB $00,$00,$00,$00,$00,$00,$00,$00
9D88  0000000000000000  04288 	DB $00,$00,$00,$00,$00,$00,$00,$00
9D90  0000000000000000  04289 	DB $00,$00,$00,$00,$00,$00,$00,$00
9D98  0000000000000000  04290 	DB $00,$00,$00,$00,$00,$00,$00,$00
9DA0  0000000000000000  04291 	DB $00,$00,$00,$00,$00,$00,$00,$00
9DA8  0000000000000000  04292 	DB $00,$00,$00,$00,$00,$00,$00,$00
9DB0  0000000000000000  04293 	DB $00,$00,$00,$00,$00,$00,$00,$00
9DB8  0000000000000000  04294 	DB $00,$00,$00,$00,$00,$00,$00,$00
9DC0  0000000000000000  04295 	DB $00,$00,$00,$00,$00,$00,$00,$00
9DC8  0000000000000000  04296 	DB $00,$00,$00,$00,$00,$00,$00,$00
9DD0  0000000000000000  04297 	DB $00,$00,$00,$00,$00,$00,$00,$00
9DD8  0000000000000000  04298 	DB $00,$00,$00,$00,$00,$00,$00,$00
9DE0  0000000000000000  04299 	DB $00,$00,$00,$00,$00,$00,$00,$00
9DE8  0000000000000000  04300 	DB $00,$00,$00,$00,$00,$00,$00,$00
9DF0  0000000000000000  04301 	DB $00,$00,$00,$00,$00,$00,$00,$00
9DF8  0000000000000000  04302 	DB $00,$00,$00,$00,$00,$00,$00,$00
9E00  0000000000000000  04303 	DB $00,$00,$00,$00,$00,$00,$00,$00
9E08  0000000000000000  04304 	DB $00,$00,$00,$00,$00,$00,$00,$00
9E10  0000000000000000  04305 	DB $00,$00,$00,$00,$00,$00,$00,$00
9E18  0000000000000000  04306 	DB $00,$00,$00,$00,$00,$00,$00,$00
9E20  0000000000000000  04307 	DB $00,$00,$00,$00,$00,$00,$00,$00
9E28  0000000000000000  04308 	DB $00,$00,$00,$00,$00,$00,$00,$00
9E30  0000000000000000  04309 	DB $00,$00,$00,$00,$00,$00,$00,$00
9E38  0000000000000000  04310 	DB $00,$00,$00,$00,$00,$00,$00,$00
9E40  0000000000000000  04311 	DB $00,$00,$00,$00,$00,$00,$00,$00
9E48  0000000000000000  04312 	DB $00,$00,$00,$00,$00,$00,$00,$00
9E50  0000000000000000  04313 	DB $00,$00,$00,$00,$00,$00,$00,$00
9E58  0000000000000000  04314 	DB $00,$00,$00,$00,$00,$00,$00,$00
9E60  0000000000000000  04315 	DB $00,$00,$00,$00,$00,$00,$00,$00
9E68  0000000000000000  04316 	DB $00,$00,$00,$00,$00,$00,$00,$00
9E70  0000000000000000  04317 	DB $00,$00,$00,$00,$00,$00,$00,$00
9E78  0000000000000000  04318 	DB $00,$00,$00,$00,$00,$00,$00,$00
9E80  0000000000000000  04319 	DB $00,$00,$00,$00,$00,$00,$00,$00
9E88  0000000000000000  04320 	DB $00,$00,$00,$00,$00,$00,$00,$00
9E90  0000000000000000  04321 	DB $00,$00,$00,$00,$00,$00,$00,$00
9E98  0000000000000000  04322 	DB $00,$00,$00,$00,$00,$00,$00,$00
9EA0  0000000000000000  04323 	DB $00,$00,$00,$00,$00,$00,$00,$00
9EA8  0000000000000000  04324 	DB $00,$00,$00,$00,$00,$00,$00,$00
9EB0  0000000000000000  04325 	DB $00,$00,$00,$00,$00,$00,$00,$00
9EB8  0000000000000000  04326 	DB $00,$00,$00,$00,$00,$00,$00,$00
9EC0  0000000000000000  04327 	DB $00,$00,$00,$00,$00,$00,$00,$00
9EC8  0000000000000000  04328 	DB $00,$00,$00,$00,$00,$00,$00,$00
9ED0  0000000000000000  04329 	DB $00,$00,$00,$00,$00,$00,$00,$00
9ED8  0000000000000000  04330 	DB $00,$00,$00,$00,$00,$00,$00,$00
9EE0  0000000000000000  04331 	DB $00,$00,$00,$00,$00,$00,$00,$00
9EE8  0000000000000000  04332 	DB $00,$00,$00,$00,$00,$00,$00,$00
9EF0  0000000000000000  04333 	DB $00,$00,$00,$00,$00,$00,$00,$00
9EF8  0000000000000000  04334 	DB $00,$00,$00,$00,$00,$00,$00,$00
9F00  0000000000000000  04335 	DB $00,$00,$00,$00,$00,$00,$00,$00
9F08  0000000000000000  04336 	DB $00,$00,$00,$00,$00,$00,$00,$00
9F10  0000000000000000  04337 	DB $00,$00,$00,$00,$00,$00,$00,$00
9F18  0000000000000000  04338 	DB $00,$00,$00,$00,$00,$00,$00,$00
9F20  0000000000000000  04339 	DB $00,$00,$00,$00,$00,$00,$00,$00
9F28  0000000000000000  04340 	DB $00,$00,$00,$00,$00,$00,$00,$00
9F30  0000000000000000  04341 	DB $00,$00,$00,$00,$00,$00,$00,$00
9F38  0000000000000000  04342 	DB $00,$00,$00,$00,$00,$00,$00,$00
9F40  0000000000000000  04343 	DB $00,$00,$00,$00,$00,$00,$00,$00
9F48  0000000000000000  04344 	DB $00,$00,$00,$00,$00,$00,$00,$00
9F50  0000000000000000  04345 	DB $00,$00,$00,$00,$00,$00,$00,$00
9F58  0000000000000000  04346 	DB $00,$00,$00,$00,$00,$00,$00,$00
9F60  0000000000000000  04347 	DB $00,$00,$00,$00,$00,$00,$00,$00
9F68  0000000000000000  04348 	DB $00,$00,$00,$00,$00,$00,$00,$00
9F70  0000000000000000  04349 	DB $00,$00,$00,$00,$00,$00,$00,$00
9F78  0000000000000000  04350 	DB $00,$00,$00,$00,$00,$00,$00,$00
9F80  0000000000000000  04351 	DB $00,$00,$00,$00,$00,$00,$00,$00
9F88  0000000000000000  04352 	DB $00,$00,$00,$00,$00,$00,$00,$00
9F90  0000000000000000  04353 	DB $00,$00,$00,$00,$00,$00,$00,$00
9F98  0000000000000000  04354 	DB $00,$00,$00,$00,$00,$00,$00,$00
9FA0  0000000000000000  04355 	DB $00,$00,$00,$00,$00,$00,$00,$00
9FA8  0000000000000000  04356 	DB $00,$00,$00,$00,$00,$00,$00,$00
9FB0  0000000000000000  04357 	DB $00,$00,$00,$00,$00,$00,$00,$00
9FB8  0000000000000000  04358 	DB $00,$00,$00,$00,$00,$00,$00,$00
9FC0  0000000000000000  04359 	DB $00,$00,$00,$00,$00,$00,$00,$00
9FC8  0000000000000000  04360 	DB $00,$00,$00,$00,$00,$00,$00,$00
9FD0  0000000000000000  04361 	DB $00,$00,$00,$00,$00,$00,$00,$00
9FD8  0000000000000000  04362 	DB $00,$00,$00,$00,$00,$00,$00,$00
9FE0  0000000000000000  04363 	DB $00,$00,$00,$00,$00,$00,$00,$00
9FE8  0000000000000000  04364 	DB $00,$00,$00,$00,$00,$00,$00,$00
9FF0  0000000000000000  04365 	DB $00,$00,$00,$00,$00,$00,$00,$00
9FF8  0000000000000000  04366 	DB $00,$00,$00,$00,$00,$00,$00,$00

00000 ERRORS FOUND
00000 WARNINGS FOUND

114722 PROGRAM BYTES

LABEL                VALUE/ADDRESS

AUDIO_FREQ1          0042
AUDIO_FREQ2          0044
AUDIO_FREQ3          0046
AUDIO_NOISE          004c
AUDIO_VOL1           0048
AUDIO_VOL2           0049
AUDIO_VOL3           004a
AUDIO_VOL4HW         004b
BANKSEL              c000
BANK_0_FREE          34fb
BANK_1_FREE          3de2
BANK_2_FREE          3f05
BASE_RAM             0050
CHRRAM_BANK          001c
CLEAR_SPRITES        c57a
CLEAR_SPRITES.1      c57e
CLS                  c0c6
CLS.1                c0c8
CLS.2                c0d3
CLS.3                c0d5
COLECO               0000
CONT1                4016
CONT2                4017
CONT_BITS            001d
CONVERT_JOYSTICK     c42e
COPY_CHRRAM          c909
COPY_CHRRAM.1        c917
COPY_PAGE            c91e
COPY_PAGE.1          c920
CPM                  0000
CPYBLK               c07a
CPYBLK.1             c07a
CURSOR               000c
CV1                  cafc
CV2                  caff
CVBASIC_BANK_ROM_SIZE 0100
CVBASIC_BANK_SWITCHING 0001
CVBASIC_COMPRESSION  0000
CVBASIC_MUSIC_PLAYER 0001
CVB_DISPLAY_SOME_TEXT 8000
CVB_IMAGE_PATTERN    803a
CVB_TUNE_1           8000
DISSCR               c073
EINSTEIN             0000
ENASCR               c06c
FLICKER              0011
FRAME                0012
IRQ_HANDLER          c2e2
JOY1_DATA            0020
JOY2_DATA            0021
KEY1_DATA            0022
KEY2_DATA            0023
LDIRVM               c03a
LDIRVM.1             c069
LDIRVM2              c02b
LDIRVM2.1            c039
LDIRVM4              c01e
LFSR                 001e
MEMOTECH             0000
MODE                 000e
MODE_0               c577
MSX                  0000
MUSIC_BANK           0030
MUSIC_BASS           c741
MUSIC_BASS.1         c751
MUSIC_CLARINET       c78f
MUSIC_CLARINET.1     c7ad
MUSIC_CLARINET.2     c7c5
MUSIC_CLARINET.3     c79f
MUSIC_COUNTER_1      0039
MUSIC_COUNTER_2      003c
MUSIC_COUNTER_3      003f
MUSIC_COUNTER_4      0041
MUSIC_DRUM           0040
MUSIC_FLUTE          c6f3
MUSIC_FLUTE.1        c707
MUSIC_FLUTE.2        c71f
MUSIC_GENERATE       c5cb
MUSIC_GENERATE.1     c5dc
MUSIC_GENERATE.10    c68f
MUSIC_GENERATE.11    c6cd
MUSIC_GENERATE.12    c6a8
MUSIC_GENERATE.14    c6bd
MUSIC_GENERATE.15    c69d
MUSIC_GENERATE.2     c65c
MUSIC_GENERATE.3     c5f0
MUSIC_GENERATE.4     c5ff
MUSIC_GENERATE.5     c61a
MUSIC_GENERATE.6     c630
MUSIC_GENERATE.7     c646
MUSIC_GENERATE.8     c66d
MUSIC_GENERATE.9     c67e
MUSIC_HARDWARE       c85d
MUSIC_HARDWARE.1     c8e3
MUSIC_HARDWARE.2     c8e5
MUSIC_HARDWARE.3     c891
MUSIC_HARDWARE.4     c8ad
MUSIC_HARDWARE.5     c8d3
MUSIC_HARDWARE.6     c8e8
MUSIC_HARDWARE.7     c8fd
MUSIC_HARDWARE.8     c902
MUSIC_HARDWARE.9     c87f
MUSIC_INIT           c588
MUSIC_INSTRUMENT_1   0037
MUSIC_INSTRUMENT_2   003a
MUSIC_INSTRUMENT_3   003d
MUSIC_MODE           004e
MUSIC_NOTE2FREQ      c737
MUSIC_NOTES_TABLE    c7dd
MUSIC_NOTE_1         0038
MUSIC_NOTE_2         003b
MUSIC_NOTE_3         003e
MUSIC_NOTE_COUNTER   0036
MUSIC_PIANO          c769
MUSIC_PIANO.1        c777
MUSIC_PLAY           c5a6
MUSIC_PLAYING        004f
MUSIC_POINTER        0034
MUSIC_SILENCE        c903
MUSIC_START          0032
MUSIC_TICK           004d
MUSIC_TIMING         0031
NABU                 0000
NES_CHR_BANKS        0001
NES_NAMETABLE        0000
NES_PRG_BANKS        0010
NMI_HANDLER          c2e3
NMI_HANDLER.0        c30c
NMI_HANDLER.1        c362
NMI_HANDLER.10       c3ce
NMI_HANDLER.11       c35e
NMI_HANDLER.12       c3eb
NMI_HANDLER.14       c3e7
NMI_HANDLER.2        c34c
NMI_HANDLER.3        c354
NMI_HANDLER.4        c32f
NMI_HANDLER.5        c2fc
NMI_HANDLER.6        c2fe
NMI_HANDLER.7        c33e
NMI_HANDLER.8        c3d4
NMI_HANDLER.9        c3f2
NTSC                 000f
OAMADDR              2003
PENCIL               0000
POINTER              0008
PPUADDR              2006
PPUBUF               0100
PPUCTRL              2000
PPUDATA              2007
PPUMASK              2001
PPUSCROLL            2005
PPUSTATUS            2002
PPU_CTRL             0016
PPU_MASK             0017
PPU_POINTER          0014
PPU_SOURCE           0000
PPU_TEMP             0015
PRINT_CHAR           c55e
PRINT_CHAR.1         c573
PRINT_DIGIT          c52f
PRINT_DIGIT.2        c531
PRINT_DIGIT.3        c558
PRINT_DIGIT.4        c54f
PRINT_DIGIT.6        c556
PRINT_NUMBER         c4ef
PRINT_NUMBER1        c520
PRINT_NUMBER2        c515
PRINT_NUMBER3        c50a
PRINT_NUMBER4        c4ff
PRINT_NUMBER5        c4f4
PRINT_STRING         c492
PRINT_STRING.1       c4ee
PRINT_STRING.2       c4a4
PRINT_STRING_CURSOR  c48e
PRINT_STRING_CURSOR_CONSTANT c46a
PSG                  0000
PV2000               0000
RAM_END              ca4b
RAM_SIZE             0800
RANDOM               c2b3
RANDOM.0             c2c1
READ_POINTER         000a
RESULT               0006
ROM_END              c000
SCROLL_X             0018
SCROLL_Y             001a
SG1000               0000
SGM                  0000
SMS                  0000
SORD                 0000
SPRITE_DATA          0024
SPRITE_PAGE          0002
SPRRAM               4014
STACK                01ff
START                c92b
START.1              c953
START.2              c9de
START.3              c9fd
START.4              ca0f
START.5              c979
START.6              c97d
START.7              c990
START.8              c999
START.9              c99f
SVI                  0000
TEMP                 0002
TEMP2                0004
TI99                 0000
UPDATE_SPRITE        c107
VDP                  0000
VDPR                 0000
VDP_STATUS           0010
WAIT                 c463
WAIT.1               c465
WRTVRM               c000
WRTVRM.1             c01b
_ABS16               c125
_DIV16               c223
_DIV16.1             c235
_DIV16.2             c23d
_DIV16.3             c261
_DIV16S              c1e8
_DIV16S.1            c20c
_DIV16S.2            c219
_DIV16S.3            c222
_MOD16               c26d
_MOD16.1             c27f
_MOD16.2             c287
_MOD16.3             c2ab
_MOD16S              c1b1
_MOD16S.1            c1d1
_MOD16S.2            c1de
_MOD16S.3            c1e7
_MUL16               c178
_MUL16.1             c192
_MUL16.2             c1a5
_NEG16               c12a
_NEG16.1             c136
_PEEK16              c169
_PEEK8               c160
_READ16              c14b
_READ8               c155
_READ8.1             c15f
_SGN16               c138
_SGN16.1             c149
_SGN16.2             c147
